
ctarget：     文件格式 elf64-x86-64


Disassembly of section .init:

0000000000400b70 <_init>:
  400b70:	48 83 ec 08          	sub    $0x8,%rsp
  400b74:	48 8b 05 7d 34 20 00 	mov    0x20347d(%rip),%rax        # 603ff8 <__gmon_start__>
  400b7b:	48 85 c0             	test   %rax,%rax
  400b7e:	74 05                	je     400b85 <_init+0x15>
  400b80:	e8 1b 02 00 00       	callq  400da0 <__gmon_start__@plt>
  400b85:	48 83 c4 08          	add    $0x8,%rsp
  400b89:	c3                   	retq   

Disassembly of section .plt:

0000000000400b90 <.plt>:
  400b90:	ff 35 72 34 20 00    	pushq  0x203472(%rip)        # 604008 <_GLOBAL_OFFSET_TABLE_+0x8>
  400b96:	ff 25 74 34 20 00    	jmpq   *0x203474(%rip)        # 604010 <_GLOBAL_OFFSET_TABLE_+0x10>
  400b9c:	0f 1f 40 00          	nopl   0x0(%rax)

0000000000400ba0 <__errno_location@plt>:
  400ba0:	ff 25 72 34 20 00    	jmpq   *0x203472(%rip)        # 604018 <__errno_location@GLIBC_2.2.5>
  400ba6:	68 00 00 00 00       	pushq  $0x0
  400bab:	e9 e0 ff ff ff       	jmpq   400b90 <.plt>

0000000000400bb0 <srandom@plt>:
  400bb0:	ff 25 6a 34 20 00    	jmpq   *0x20346a(%rip)        # 604020 <srandom@GLIBC_2.2.5>
  400bb6:	68 01 00 00 00       	pushq  $0x1
  400bbb:	e9 d0 ff ff ff       	jmpq   400b90 <.plt>

0000000000400bc0 <strncmp@plt>:
  400bc0:	ff 25 62 34 20 00    	jmpq   *0x203462(%rip)        # 604028 <strncmp@GLIBC_2.2.5>
  400bc6:	68 02 00 00 00       	pushq  $0x2
  400bcb:	e9 c0 ff ff ff       	jmpq   400b90 <.plt>

0000000000400bd0 <strcpy@plt>:
  400bd0:	ff 25 5a 34 20 00    	jmpq   *0x20345a(%rip)        # 604030 <strcpy@GLIBC_2.2.5>
  400bd6:	68 03 00 00 00       	pushq  $0x3
  400bdb:	e9 b0 ff ff ff       	jmpq   400b90 <.plt>

0000000000400be0 <puts@plt>:
  400be0:	ff 25 52 34 20 00    	jmpq   *0x203452(%rip)        # 604038 <puts@GLIBC_2.2.5>
  400be6:	68 04 00 00 00       	pushq  $0x4
  400beb:	e9 a0 ff ff ff       	jmpq   400b90 <.plt>

0000000000400bf0 <write@plt>:
  400bf0:	ff 25 4a 34 20 00    	jmpq   *0x20344a(%rip)        # 604040 <write@GLIBC_2.2.5>
  400bf6:	68 05 00 00 00       	pushq  $0x5
  400bfb:	e9 90 ff ff ff       	jmpq   400b90 <.plt>

0000000000400c00 <mmap@plt>:
  400c00:	ff 25 42 34 20 00    	jmpq   *0x203442(%rip)        # 604048 <mmap@GLIBC_2.2.5>
  400c06:	68 06 00 00 00       	pushq  $0x6
  400c0b:	e9 80 ff ff ff       	jmpq   400b90 <.plt>

0000000000400c10 <printf@plt>:
  400c10:	ff 25 3a 34 20 00    	jmpq   *0x20343a(%rip)        # 604050 <printf@GLIBC_2.2.5>
  400c16:	68 07 00 00 00       	pushq  $0x7
  400c1b:	e9 70 ff ff ff       	jmpq   400b90 <.plt>

0000000000400c20 <memset@plt>:
  400c20:	ff 25 32 34 20 00    	jmpq   *0x203432(%rip)        # 604058 <memset@GLIBC_2.2.5>
  400c26:	68 08 00 00 00       	pushq  $0x8
  400c2b:	e9 60 ff ff ff       	jmpq   400b90 <.plt>

0000000000400c30 <alarm@plt>:
  400c30:	ff 25 2a 34 20 00    	jmpq   *0x20342a(%rip)        # 604060 <alarm@GLIBC_2.2.5>
  400c36:	68 09 00 00 00       	pushq  $0x9
  400c3b:	e9 50 ff ff ff       	jmpq   400b90 <.plt>

0000000000400c40 <close@plt>:
  400c40:	ff 25 22 34 20 00    	jmpq   *0x203422(%rip)        # 604068 <close@GLIBC_2.2.5>
  400c46:	68 0a 00 00 00       	pushq  $0xa
  400c4b:	e9 40 ff ff ff       	jmpq   400b90 <.plt>

0000000000400c50 <read@plt>:
  400c50:	ff 25 1a 34 20 00    	jmpq   *0x20341a(%rip)        # 604070 <read@GLIBC_2.2.5>
  400c56:	68 0b 00 00 00       	pushq  $0xb
  400c5b:	e9 30 ff ff ff       	jmpq   400b90 <.plt>

0000000000400c60 <__libc_start_main@plt>:
  400c60:	ff 25 12 34 20 00    	jmpq   *0x203412(%rip)        # 604078 <__libc_start_main@GLIBC_2.2.5>
  400c66:	68 0c 00 00 00       	pushq  $0xc
  400c6b:	e9 20 ff ff ff       	jmpq   400b90 <.plt>

0000000000400c70 <signal@plt>:
  400c70:	ff 25 0a 34 20 00    	jmpq   *0x20340a(%rip)        # 604080 <signal@GLIBC_2.2.5>
  400c76:	68 0d 00 00 00       	pushq  $0xd
  400c7b:	e9 10 ff ff ff       	jmpq   400b90 <.plt>

0000000000400c80 <gethostbyname@plt>:
  400c80:	ff 25 02 34 20 00    	jmpq   *0x203402(%rip)        # 604088 <gethostbyname@GLIBC_2.2.5>
  400c86:	68 0e 00 00 00       	pushq  $0xe
  400c8b:	e9 00 ff ff ff       	jmpq   400b90 <.plt>

0000000000400c90 <fprintf@plt>:
  400c90:	ff 25 fa 33 20 00    	jmpq   *0x2033fa(%rip)        # 604090 <fprintf@GLIBC_2.2.5>
  400c96:	68 0f 00 00 00       	pushq  $0xf
  400c9b:	e9 f0 fe ff ff       	jmpq   400b90 <.plt>

0000000000400ca0 <strtol@plt>:
  400ca0:	ff 25 f2 33 20 00    	jmpq   *0x2033f2(%rip)        # 604098 <strtol@GLIBC_2.2.5>
  400ca6:	68 10 00 00 00       	pushq  $0x10
  400cab:	e9 e0 fe ff ff       	jmpq   400b90 <.plt>

0000000000400cb0 <memcpy@plt>:
  400cb0:	ff 25 ea 33 20 00    	jmpq   *0x2033ea(%rip)        # 6040a0 <memcpy@GLIBC_2.14>
  400cb6:	68 11 00 00 00       	pushq  $0x11
  400cbb:	e9 d0 fe ff ff       	jmpq   400b90 <.plt>

0000000000400cc0 <time@plt>:
  400cc0:	ff 25 e2 33 20 00    	jmpq   *0x2033e2(%rip)        # 6040a8 <time@GLIBC_2.2.5>
  400cc6:	68 12 00 00 00       	pushq  $0x12
  400ccb:	e9 c0 fe ff ff       	jmpq   400b90 <.plt>

0000000000400cd0 <random@plt>:
  400cd0:	ff 25 da 33 20 00    	jmpq   *0x2033da(%rip)        # 6040b0 <random@GLIBC_2.2.5>
  400cd6:	68 13 00 00 00       	pushq  $0x13
  400cdb:	e9 b0 fe ff ff       	jmpq   400b90 <.plt>

0000000000400ce0 <_IO_getc@plt>:
  400ce0:	ff 25 d2 33 20 00    	jmpq   *0x2033d2(%rip)        # 6040b8 <_IO_getc@GLIBC_2.2.5>
  400ce6:	68 14 00 00 00       	pushq  $0x14
  400ceb:	e9 a0 fe ff ff       	jmpq   400b90 <.plt>

0000000000400cf0 <__isoc99_sscanf@plt>:
  400cf0:	ff 25 ca 33 20 00    	jmpq   *0x2033ca(%rip)        # 6040c0 <__isoc99_sscanf@GLIBC_2.7>
  400cf6:	68 15 00 00 00       	pushq  $0x15
  400cfb:	e9 90 fe ff ff       	jmpq   400b90 <.plt>

0000000000400d00 <munmap@plt>:
  400d00:	ff 25 c2 33 20 00    	jmpq   *0x2033c2(%rip)        # 6040c8 <munmap@GLIBC_2.2.5>
  400d06:	68 16 00 00 00       	pushq  $0x16
  400d0b:	e9 80 fe ff ff       	jmpq   400b90 <.plt>

0000000000400d10 <bcopy@plt>:
  400d10:	ff 25 ba 33 20 00    	jmpq   *0x2033ba(%rip)        # 6040d0 <bcopy@GLIBC_2.2.5>
  400d16:	68 17 00 00 00       	pushq  $0x17
  400d1b:	e9 70 fe ff ff       	jmpq   400b90 <.plt>

0000000000400d20 <fopen@plt>:
  400d20:	ff 25 b2 33 20 00    	jmpq   *0x2033b2(%rip)        # 6040d8 <fopen@GLIBC_2.2.5>
  400d26:	68 18 00 00 00       	pushq  $0x18
  400d2b:	e9 60 fe ff ff       	jmpq   400b90 <.plt>

0000000000400d30 <getopt@plt>:
  400d30:	ff 25 aa 33 20 00    	jmpq   *0x2033aa(%rip)        # 6040e0 <getopt@GLIBC_2.2.5>
  400d36:	68 19 00 00 00       	pushq  $0x19
  400d3b:	e9 50 fe ff ff       	jmpq   400b90 <.plt>

0000000000400d40 <strtoul@plt>:
  400d40:	ff 25 a2 33 20 00    	jmpq   *0x2033a2(%rip)        # 6040e8 <strtoul@GLIBC_2.2.5>
  400d46:	68 1a 00 00 00       	pushq  $0x1a
  400d4b:	e9 40 fe ff ff       	jmpq   400b90 <.plt>

0000000000400d50 <gethostname@plt>:
  400d50:	ff 25 9a 33 20 00    	jmpq   *0x20339a(%rip)        # 6040f0 <gethostname@GLIBC_2.2.5>
  400d56:	68 1b 00 00 00       	pushq  $0x1b
  400d5b:	e9 30 fe ff ff       	jmpq   400b90 <.plt>

0000000000400d60 <sprintf@plt>:
  400d60:	ff 25 92 33 20 00    	jmpq   *0x203392(%rip)        # 6040f8 <sprintf@GLIBC_2.2.5>
  400d66:	68 1c 00 00 00       	pushq  $0x1c
  400d6b:	e9 20 fe ff ff       	jmpq   400b90 <.plt>

0000000000400d70 <exit@plt>:
  400d70:	ff 25 8a 33 20 00    	jmpq   *0x20338a(%rip)        # 604100 <exit@GLIBC_2.2.5>
  400d76:	68 1d 00 00 00       	pushq  $0x1d
  400d7b:	e9 10 fe ff ff       	jmpq   400b90 <.plt>

0000000000400d80 <connect@plt>:
  400d80:	ff 25 82 33 20 00    	jmpq   *0x203382(%rip)        # 604108 <connect@GLIBC_2.2.5>
  400d86:	68 1e 00 00 00       	pushq  $0x1e
  400d8b:	e9 00 fe ff ff       	jmpq   400b90 <.plt>

0000000000400d90 <socket@plt>:
  400d90:	ff 25 7a 33 20 00    	jmpq   *0x20337a(%rip)        # 604110 <socket@GLIBC_2.2.5>
  400d96:	68 1f 00 00 00       	pushq  $0x1f
  400d9b:	e9 f0 fd ff ff       	jmpq   400b90 <.plt>

Disassembly of section .plt.got:

0000000000400da0 <__gmon_start__@plt>:
  400da0:	ff 25 52 32 20 00    	jmpq   *0x203252(%rip)        # 603ff8 <__gmon_start__>
  400da6:	66 90                	xchg   %ax,%ax

Disassembly of section .text:

0000000000400db0 <_start>:
  400db0:	31 ed                	xor    %ebp,%ebp
  400db2:	49 89 d1             	mov    %rdx,%r9
  400db5:	5e                   	pop    %rsi
  400db6:	48 89 e2             	mov    %rsp,%rdx
  400db9:	48 83 e4 f0          	and    $0xfffffffffffffff0,%rsp
  400dbd:	50                   	push   %rax
  400dbe:	54                   	push   %rsp
  400dbf:	49 c7 c0 70 2a 40 00 	mov    $0x402a70,%r8
  400dc6:	48 c7 c1 00 2a 40 00 	mov    $0x402a00,%rcx
  400dcd:	48 c7 c7 1b 10 40 00 	mov    $0x40101b,%rdi
  400dd4:	e8 87 fe ff ff       	callq  400c60 <__libc_start_main@plt>
  400dd9:	f4                   	hlt    
  400dda:	66 0f 1f 44 00 00    	nopw   0x0(%rax,%rax,1)

0000000000400de0 <deregister_tm_clones>:
  400de0:	b8 97 44 60 00       	mov    $0x604497,%eax
  400de5:	55                   	push   %rbp
  400de6:	48 2d 90 44 60 00    	sub    $0x604490,%rax
  400dec:	48 83 f8 0e          	cmp    $0xe,%rax
  400df0:	48 89 e5             	mov    %rsp,%rbp
  400df3:	77 02                	ja     400df7 <deregister_tm_clones+0x17>
  400df5:	5d                   	pop    %rbp
  400df6:	c3                   	retq   
  400df7:	b8 00 00 00 00       	mov    $0x0,%eax
  400dfc:	48 85 c0             	test   %rax,%rax
  400dff:	74 f4                	je     400df5 <deregister_tm_clones+0x15>
  400e01:	5d                   	pop    %rbp
  400e02:	bf 90 44 60 00       	mov    $0x604490,%edi
  400e07:	ff e0                	jmpq   *%rax
  400e09:	0f 1f 80 00 00 00 00 	nopl   0x0(%rax)

0000000000400e10 <register_tm_clones>:
  400e10:	b8 90 44 60 00       	mov    $0x604490,%eax
  400e15:	55                   	push   %rbp
  400e16:	48 2d 90 44 60 00    	sub    $0x604490,%rax
  400e1c:	48 c1 f8 03          	sar    $0x3,%rax
  400e20:	48 89 e5             	mov    %rsp,%rbp
  400e23:	48 89 c2             	mov    %rax,%rdx
  400e26:	48 c1 ea 3f          	shr    $0x3f,%rdx
  400e2a:	48 01 d0             	add    %rdx,%rax
  400e2d:	48 d1 f8             	sar    %rax
  400e30:	75 02                	jne    400e34 <register_tm_clones+0x24>
  400e32:	5d                   	pop    %rbp
  400e33:	c3                   	retq   
  400e34:	ba 00 00 00 00       	mov    $0x0,%edx
  400e39:	48 85 d2             	test   %rdx,%rdx
  400e3c:	74 f4                	je     400e32 <register_tm_clones+0x22>
  400e3e:	5d                   	pop    %rbp
  400e3f:	48 89 c6             	mov    %rax,%rsi
  400e42:	bf 90 44 60 00       	mov    $0x604490,%edi
  400e47:	ff e2                	jmpq   *%rdx
  400e49:	0f 1f 80 00 00 00 00 	nopl   0x0(%rax)

0000000000400e50 <__do_global_dtors_aux>:
  400e50:	80 3d 61 36 20 00 00 	cmpb   $0x0,0x203661(%rip)        # 6044b8 <completed.6355>
  400e57:	75 11                	jne    400e6a <__do_global_dtors_aux+0x1a>
  400e59:	55                   	push   %rbp
  400e5a:	48 89 e5             	mov    %rsp,%rbp
  400e5d:	e8 7e ff ff ff       	callq  400de0 <deregister_tm_clones>
  400e62:	5d                   	pop    %rbp
  400e63:	c6 05 4e 36 20 00 01 	movb   $0x1,0x20364e(%rip)        # 6044b8 <completed.6355>
  400e6a:	f3 c3                	repz retq 
  400e6c:	0f 1f 40 00          	nopl   0x0(%rax)

0000000000400e70 <frame_dummy>:
  400e70:	48 83 3d a8 2f 20 00 	cmpq   $0x0,0x202fa8(%rip)        # 603e20 <__JCR_END__>
  400e77:	00 
  400e78:	74 1e                	je     400e98 <frame_dummy+0x28>
  400e7a:	b8 00 00 00 00       	mov    $0x0,%eax
  400e7f:	48 85 c0             	test   %rax,%rax
  400e82:	74 14                	je     400e98 <frame_dummy+0x28>
  400e84:	55                   	push   %rbp
  400e85:	bf 20 3e 60 00       	mov    $0x603e20,%edi
  400e8a:	48 89 e5             	mov    %rsp,%rbp
  400e8d:	ff d0                	callq  *%rax
  400e8f:	5d                   	pop    %rbp
  400e90:	e9 7b ff ff ff       	jmpq   400e10 <register_tm_clones>
  400e95:	0f 1f 00             	nopl   (%rax)
  400e98:	e9 73 ff ff ff       	jmpq   400e10 <register_tm_clones>
  400e9d:	0f 1f 00             	nopl   (%rax)

0000000000400ea0 <usage>:
  400ea0:	48 83 ec 08          	sub    $0x8,%rsp
  400ea4:	48 89 fe             	mov    %rdi,%rsi
  400ea7:	83 3d 3a 36 20 00 00 	cmpl   $0x0,0x20363a(%rip)        # 6044e8 <is_checker>
  400eae:	74 39                	je     400ee9 <usage+0x49>
  400eb0:	bf 90 2a 40 00       	mov    $0x402a90,%edi
  400eb5:	b8 00 00 00 00       	mov    $0x0,%eax
  400eba:	e8 51 fd ff ff       	callq  400c10 <printf@plt>
  400ebf:	bf c8 2a 40 00       	mov    $0x402ac8,%edi
  400ec4:	e8 17 fd ff ff       	callq  400be0 <puts@plt>
  400ec9:	bf 00 2c 40 00       	mov    $0x402c00,%edi
  400ece:	e8 0d fd ff ff       	callq  400be0 <puts@plt>
  400ed3:	bf f0 2a 40 00       	mov    $0x402af0,%edi
  400ed8:	e8 03 fd ff ff       	callq  400be0 <puts@plt>
  400edd:	bf 1a 2c 40 00       	mov    $0x402c1a,%edi
  400ee2:	e8 f9 fc ff ff       	callq  400be0 <puts@plt>
  400ee7:	eb 2d                	jmp    400f16 <usage+0x76>
  400ee9:	bf 36 2c 40 00       	mov    $0x402c36,%edi
  400eee:	b8 00 00 00 00       	mov    $0x0,%eax
  400ef3:	e8 18 fd ff ff       	callq  400c10 <printf@plt>
  400ef8:	bf 18 2b 40 00       	mov    $0x402b18,%edi
  400efd:	e8 de fc ff ff       	callq  400be0 <puts@plt>
  400f02:	bf 40 2b 40 00       	mov    $0x402b40,%edi
  400f07:	e8 d4 fc ff ff       	callq  400be0 <puts@plt>
  400f0c:	bf 54 2c 40 00       	mov    $0x402c54,%edi
  400f11:	e8 ca fc ff ff       	callq  400be0 <puts@plt>
  400f16:	bf 00 00 00 00       	mov    $0x0,%edi
  400f1b:	e8 50 fe ff ff       	callq  400d70 <exit@plt>

0000000000400f20 <initialize_target>:
  400f20:	55                   	push   %rbp
  400f21:	53                   	push   %rbx
  400f22:	48 81 ec 08 21 00 00 	sub    $0x2108,%rsp
  400f29:	89 f5                	mov    %esi,%ebp
  400f2b:	89 3d a7 35 20 00    	mov    %edi,0x2035a7(%rip)        # 6044d8 <check_level>
  400f31:	8b 3d 11 32 20 00    	mov    0x203211(%rip),%edi        # 604148 <target_id>
  400f37:	e8 97 1a 00 00       	callq  4029d3 <gencookie>
  400f3c:	89 05 a2 35 20 00    	mov    %eax,0x2035a2(%rip)        # 6044e4 <cookie>
  400f42:	89 c7                	mov    %eax,%edi
  400f44:	e8 8a 1a 00 00       	callq  4029d3 <gencookie>
  400f49:	89 05 91 35 20 00    	mov    %eax,0x203591(%rip)        # 6044e0 <authkey>
  400f4f:	8b 05 f3 31 20 00    	mov    0x2031f3(%rip),%eax        # 604148 <target_id>
  400f55:	8d 78 01             	lea    0x1(%rax),%edi
  400f58:	e8 53 fc ff ff       	callq  400bb0 <srandom@plt>
  400f5d:	e8 6e fd ff ff       	callq  400cd0 <random@plt>
  400f62:	89 c7                	mov    %eax,%edi
  400f64:	e8 75 02 00 00       	callq  4011de <scramble>
  400f69:	89 c3                	mov    %eax,%ebx
  400f6b:	85 ed                	test   %ebp,%ebp
  400f6d:	74 18                	je     400f87 <initialize_target+0x67>
  400f6f:	bf 00 00 00 00       	mov    $0x0,%edi
  400f74:	e8 47 fd ff ff       	callq  400cc0 <time@plt>
  400f79:	89 c7                	mov    %eax,%edi
  400f7b:	e8 30 fc ff ff       	callq  400bb0 <srandom@plt>
  400f80:	e8 4b fd ff ff       	callq  400cd0 <random@plt>
  400f85:	eb 05                	jmp    400f8c <initialize_target+0x6c>
  400f87:	b8 00 00 00 00       	mov    $0x0,%eax
  400f8c:	01 c3                	add    %eax,%ebx
  400f8e:	0f b7 db             	movzwl %bx,%ebx
  400f91:	8d 04 dd 00 01 00 00 	lea    0x100(,%rbx,8),%eax
  400f98:	89 c0                	mov    %eax,%eax
  400f9a:	48 89 05 df 34 20 00 	mov    %rax,0x2034df(%rip)        # 604480 <buf_offset>
  400fa1:	c6 05 60 41 20 00 63 	movb   $0x63,0x204160(%rip)        # 605108 <target_prefix>
  400fa8:	83 3d d9 34 20 00 00 	cmpl   $0x0,0x2034d9(%rip)        # 604488 <notify>
  400faf:	74 60                	je     401011 <initialize_target+0xf1>
  400fb1:	83 3d 30 35 20 00 00 	cmpl   $0x0,0x203530(%rip)        # 6044e8 <is_checker>
  400fb8:	75 57                	jne    401011 <initialize_target+0xf1>
  400fba:	be 00 01 00 00       	mov    $0x100,%esi
  400fbf:	48 89 e7             	mov    %rsp,%rdi
  400fc2:	e8 89 fd ff ff       	callq  400d50 <gethostname@plt>
  400fc7:	85 c0                	test   %eax,%eax
  400fc9:	74 14                	je     400fdf <initialize_target+0xbf>
  400fcb:	bf 70 2b 40 00       	mov    $0x402b70,%edi
  400fd0:	e8 0b fc ff ff       	callq  400be0 <puts@plt>
  400fd5:	bf 08 00 00 00       	mov    $0x8,%edi
  400fda:	e8 91 fd ff ff       	callq  400d70 <exit@plt>
  400fdf:	48 8d bc 24 00 01 00 	lea    0x100(%rsp),%rdi
  400fe6:	00 
  400fe7:	e8 7e 17 00 00       	callq  40276a <init_driver>
  400fec:	85 c0                	test   %eax,%eax
  400fee:	79 21                	jns    401011 <initialize_target+0xf1>
  400ff0:	48 8d b4 24 00 01 00 	lea    0x100(%rsp),%rsi
  400ff7:	00 
  400ff8:	bf a8 2b 40 00       	mov    $0x402ba8,%edi
  400ffd:	b8 00 00 00 00       	mov    $0x0,%eax
  401002:	e8 09 fc ff ff       	callq  400c10 <printf@plt>
  401007:	bf 08 00 00 00       	mov    $0x8,%edi
  40100c:	e8 5f fd ff ff       	callq  400d70 <exit@plt>
  401011:	48 81 c4 08 21 00 00 	add    $0x2108,%rsp
  401018:	5b                   	pop    %rbx
  401019:	5d                   	pop    %rbp
  40101a:	c3                   	retq   

000000000040101b <main>:
  40101b:	41 56                	push   %r14
  40101d:	41 55                	push   %r13
  40101f:	41 54                	push   %r12
  401021:	55                   	push   %rbp
  401022:	53                   	push   %rbx
  401023:	41 89 fc             	mov    %edi,%r12d
  401026:	48 89 f3             	mov    %rsi,%rbx
  401029:	be 91 1b 40 00       	mov    $0x401b91,%esi
  40102e:	bf 0b 00 00 00       	mov    $0xb,%edi
  401033:	e8 38 fc ff ff       	callq  400c70 <signal@plt>
  401038:	be 43 1b 40 00       	mov    $0x401b43,%esi
  40103d:	bf 07 00 00 00       	mov    $0x7,%edi
  401042:	e8 29 fc ff ff       	callq  400c70 <signal@plt>
  401047:	be df 1b 40 00       	mov    $0x401bdf,%esi
  40104c:	bf 04 00 00 00       	mov    $0x4,%edi
  401051:	e8 1a fc ff ff       	callq  400c70 <signal@plt>
  401056:	83 3d 8b 34 20 00 00 	cmpl   $0x0,0x20348b(%rip)        # 6044e8 <is_checker>
  40105d:	74 20                	je     40107f <main+0x64>
  40105f:	be 2d 1c 40 00       	mov    $0x401c2d,%esi
  401064:	bf 0e 00 00 00       	mov    $0xe,%edi
  401069:	e8 02 fc ff ff       	callq  400c70 <signal@plt>
  40106e:	bf 05 00 00 00       	mov    $0x5,%edi
  401073:	e8 b8 fb ff ff       	callq  400c30 <alarm@plt>
  401078:	bd 72 2c 40 00       	mov    $0x402c72,%ebp
  40107d:	eb 05                	jmp    401084 <main+0x69>
  40107f:	bd 6d 2c 40 00       	mov    $0x402c6d,%ebp
  401084:	48 8b 05 15 34 20 00 	mov    0x203415(%rip),%rax        # 6044a0 <stdin@@GLIBC_2.2.5>
  40108b:	48 89 05 3e 34 20 00 	mov    %rax,0x20343e(%rip)        # 6044d0 <infile>
  401092:	41 bd 00 00 00 00    	mov    $0x0,%r13d
  401098:	41 be 00 00 00 00    	mov    $0x0,%r14d
  40109e:	e9 b9 00 00 00       	jmpq   40115c <main+0x141>
  4010a3:	83 e8 61             	sub    $0x61,%eax
  4010a6:	3c 10                	cmp    $0x10,%al
  4010a8:	0f 87 93 00 00 00    	ja     401141 <main+0x126>
  4010ae:	0f b6 c0             	movzbl %al,%eax
  4010b1:	ff 24 c5 b8 2c 40 00 	jmpq   *0x402cb8(,%rax,8)
  4010b8:	48 8b 3b             	mov    (%rbx),%rdi
  4010bb:	e8 e0 fd ff ff       	callq  400ea0 <usage>
  4010c0:	be 3d 2f 40 00       	mov    $0x402f3d,%esi
  4010c5:	48 8b 3d dc 33 20 00 	mov    0x2033dc(%rip),%rdi        # 6044a8 <optarg@@GLIBC_2.2.5>
  4010cc:	e8 4f fc ff ff       	callq  400d20 <fopen@plt>
  4010d1:	48 89 05 f8 33 20 00 	mov    %rax,0x2033f8(%rip)        # 6044d0 <infile>
  4010d8:	48 85 c0             	test   %rax,%rax
  4010db:	75 7f                	jne    40115c <main+0x141>
  4010dd:	48 8b 15 c4 33 20 00 	mov    0x2033c4(%rip),%rdx        # 6044a8 <optarg@@GLIBC_2.2.5>
  4010e4:	be 7a 2c 40 00       	mov    $0x402c7a,%esi
  4010e9:	48 8b 3d c0 33 20 00 	mov    0x2033c0(%rip),%rdi        # 6044b0 <stderr@@GLIBC_2.2.5>
  4010f0:	e8 9b fb ff ff       	callq  400c90 <fprintf@plt>
  4010f5:	b8 01 00 00 00       	mov    $0x1,%eax
  4010fa:	e9 d6 00 00 00       	jmpq   4011d5 <main+0x1ba>
  4010ff:	ba 10 00 00 00       	mov    $0x10,%edx
  401104:	be 00 00 00 00       	mov    $0x0,%esi
  401109:	48 8b 3d 98 33 20 00 	mov    0x203398(%rip),%rdi        # 6044a8 <optarg@@GLIBC_2.2.5>
  401110:	e8 2b fc ff ff       	callq  400d40 <strtoul@plt>
  401115:	41 89 c6             	mov    %eax,%r14d
  401118:	eb 42                	jmp    40115c <main+0x141>
  40111a:	ba 0a 00 00 00       	mov    $0xa,%edx
  40111f:	be 00 00 00 00       	mov    $0x0,%esi
  401124:	48 8b 3d 7d 33 20 00 	mov    0x20337d(%rip),%rdi        # 6044a8 <optarg@@GLIBC_2.2.5>
  40112b:	e8 70 fb ff ff       	callq  400ca0 <strtol@plt>
  401130:	41 89 c5             	mov    %eax,%r13d
  401133:	eb 27                	jmp    40115c <main+0x141>
  401135:	c7 05 49 33 20 00 00 	movl   $0x0,0x203349(%rip)        # 604488 <notify>
  40113c:	00 00 00 
  40113f:	eb 1b                	jmp    40115c <main+0x141>
  401141:	40 0f be f6          	movsbl %sil,%esi
  401145:	bf 97 2c 40 00       	mov    $0x402c97,%edi
  40114a:	b8 00 00 00 00       	mov    $0x0,%eax
  40114f:	e8 bc fa ff ff       	callq  400c10 <printf@plt>
  401154:	48 8b 3b             	mov    (%rbx),%rdi
  401157:	e8 44 fd ff ff       	callq  400ea0 <usage>
  40115c:	48 89 ea             	mov    %rbp,%rdx
  40115f:	48 89 de             	mov    %rbx,%rsi
  401162:	44 89 e7             	mov    %r12d,%edi
  401165:	e8 c6 fb ff ff       	callq  400d30 <getopt@plt>
  40116a:	89 c6                	mov    %eax,%esi
  40116c:	3c ff                	cmp    $0xff,%al
  40116e:	0f 85 2f ff ff ff    	jne    4010a3 <main+0x88>
  401174:	be 00 00 00 00       	mov    $0x0,%esi
  401179:	44 89 ef             	mov    %r13d,%edi
  40117c:	e8 9f fd ff ff       	callq  400f20 <initialize_target>
  401181:	83 3d 60 33 20 00 00 	cmpl   $0x0,0x203360(%rip)        # 6044e8 <is_checker>
  401188:	74 25                	je     4011af <main+0x194>
  40118a:	44 3b 35 4f 33 20 00 	cmp    0x20334f(%rip),%r14d        # 6044e0 <authkey>
  401191:	74 1c                	je     4011af <main+0x194>
  401193:	44 89 f6             	mov    %r14d,%esi
  401196:	bf d0 2b 40 00       	mov    $0x402bd0,%edi
  40119b:	b8 00 00 00 00       	mov    $0x0,%eax
  4011a0:	e8 6b fa ff ff       	callq  400c10 <printf@plt>
  4011a5:	b8 00 00 00 00       	mov    $0x0,%eax
  4011aa:	e8 9c 06 00 00       	callq  40184b <check_fail>
  4011af:	8b 35 2f 33 20 00    	mov    0x20332f(%rip),%esi        # 6044e4 <cookie>
  4011b5:	bf aa 2c 40 00       	mov    $0x402caa,%edi
  4011ba:	b8 00 00 00 00       	mov    $0x0,%eax
  4011bf:	e8 4c fa ff ff       	callq  400c10 <printf@plt>
  4011c4:	48 8b 3d b5 32 20 00 	mov    0x2032b5(%rip),%rdi        # 604480 <buf_offset>
  4011cb:	e8 2c 0b 00 00       	callq  401cfc <stable_launch>
  4011d0:	b8 00 00 00 00       	mov    $0x0,%eax
  4011d5:	5b                   	pop    %rbx
  4011d6:	5d                   	pop    %rbp
  4011d7:	41 5c                	pop    %r12
  4011d9:	41 5d                	pop    %r13
  4011db:	41 5e                	pop    %r14
  4011dd:	c3                   	retq   

00000000004011de <scramble>:
  4011de:	b8 00 00 00 00       	mov    $0x0,%eax
  4011e3:	eb 11                	jmp    4011f6 <scramble+0x18>
  4011e5:	69 c8 17 49 00 00    	imul   $0x4917,%eax,%ecx
  4011eb:	01 f9                	add    %edi,%ecx
  4011ed:	89 c2                	mov    %eax,%edx
  4011ef:	89 4c 94 d0          	mov    %ecx,-0x30(%rsp,%rdx,4)
  4011f3:	83 c0 01             	add    $0x1,%eax
  4011f6:	83 f8 09             	cmp    $0x9,%eax
  4011f9:	76 ea                	jbe    4011e5 <scramble+0x7>
  4011fb:	8b 44 24 e8          	mov    -0x18(%rsp),%eax
  4011ff:	69 c0 0c 85 00 00    	imul   $0x850c,%eax,%eax
  401205:	89 44 24 e8          	mov    %eax,-0x18(%rsp)
  401209:	8b 44 24 dc          	mov    -0x24(%rsp),%eax
  40120d:	69 c0 54 90 00 00    	imul   $0x9054,%eax,%eax
  401213:	89 44 24 dc          	mov    %eax,-0x24(%rsp)
  401217:	8b 44 24 f0          	mov    -0x10(%rsp),%eax
  40121b:	69 c0 46 c3 00 00    	imul   $0xc346,%eax,%eax
  401221:	89 44 24 f0          	mov    %eax,-0x10(%rsp)
  401225:	8b 44 24 f4          	mov    -0xc(%rsp),%eax
  401229:	69 c0 94 9b 00 00    	imul   $0x9b94,%eax,%eax
  40122f:	89 44 24 f4          	mov    %eax,-0xc(%rsp)
  401233:	8b 44 24 e8          	mov    -0x18(%rsp),%eax
  401237:	69 c0 e7 90 00 00    	imul   $0x90e7,%eax,%eax
  40123d:	89 44 24 e8          	mov    %eax,-0x18(%rsp)
  401241:	8b 44 24 dc          	mov    -0x24(%rsp),%eax
  401245:	69 c0 ec de 00 00    	imul   $0xdeec,%eax,%eax
  40124b:	89 44 24 dc          	mov    %eax,-0x24(%rsp)
  40124f:	8b 44 24 d8          	mov    -0x28(%rsp),%eax
  401253:	69 c0 f5 7f 00 00    	imul   $0x7ff5,%eax,%eax
  401259:	89 44 24 d8          	mov    %eax,-0x28(%rsp)
  40125d:	8b 44 24 d0          	mov    -0x30(%rsp),%eax
  401261:	69 c0 16 1c 00 00    	imul   $0x1c16,%eax,%eax
  401267:	89 44 24 d0          	mov    %eax,-0x30(%rsp)
  40126b:	8b 44 24 dc          	mov    -0x24(%rsp),%eax
  40126f:	69 c0 51 50 00 00    	imul   $0x5051,%eax,%eax
  401275:	89 44 24 dc          	mov    %eax,-0x24(%rsp)
  401279:	8b 44 24 dc          	mov    -0x24(%rsp),%eax
  40127d:	69 c0 39 82 00 00    	imul   $0x8239,%eax,%eax
  401283:	89 44 24 dc          	mov    %eax,-0x24(%rsp)
  401287:	8b 44 24 ec          	mov    -0x14(%rsp),%eax
  40128b:	69 c0 8b cf 00 00    	imul   $0xcf8b,%eax,%eax
  401291:	89 44 24 ec          	mov    %eax,-0x14(%rsp)
  401295:	8b 44 24 dc          	mov    -0x24(%rsp),%eax
  401299:	69 c0 0d 34 00 00    	imul   $0x340d,%eax,%eax
  40129f:	89 44 24 dc          	mov    %eax,-0x24(%rsp)
  4012a3:	8b 44 24 f4          	mov    -0xc(%rsp),%eax
  4012a7:	69 c0 82 5d 00 00    	imul   $0x5d82,%eax,%eax
  4012ad:	89 44 24 f4          	mov    %eax,-0xc(%rsp)
  4012b1:	8b 44 24 f4          	mov    -0xc(%rsp),%eax
  4012b5:	69 c0 1a ca 00 00    	imul   $0xca1a,%eax,%eax
  4012bb:	89 44 24 f4          	mov    %eax,-0xc(%rsp)
  4012bf:	8b 44 24 dc          	mov    -0x24(%rsp),%eax
  4012c3:	69 c0 a0 06 00 00    	imul   $0x6a0,%eax,%eax
  4012c9:	89 44 24 dc          	mov    %eax,-0x24(%rsp)
  4012cd:	8b 44 24 d8          	mov    -0x28(%rsp),%eax
  4012d1:	69 c0 ba 83 00 00    	imul   $0x83ba,%eax,%eax
  4012d7:	89 44 24 d8          	mov    %eax,-0x28(%rsp)
  4012db:	8b 44 24 f0          	mov    -0x10(%rsp),%eax
  4012df:	69 c0 1d 21 00 00    	imul   $0x211d,%eax,%eax
  4012e5:	89 44 24 f0          	mov    %eax,-0x10(%rsp)
  4012e9:	8b 44 24 dc          	mov    -0x24(%rsp),%eax
  4012ed:	69 c0 38 2b 00 00    	imul   $0x2b38,%eax,%eax
  4012f3:	89 44 24 dc          	mov    %eax,-0x24(%rsp)
  4012f7:	8b 44 24 e8          	mov    -0x18(%rsp),%eax
  4012fb:	69 c0 fe db 00 00    	imul   $0xdbfe,%eax,%eax
  401301:	89 44 24 e8          	mov    %eax,-0x18(%rsp)
  401305:	8b 44 24 e4          	mov    -0x1c(%rsp),%eax
  401309:	69 c0 d5 13 00 00    	imul   $0x13d5,%eax,%eax
  40130f:	89 44 24 e4          	mov    %eax,-0x1c(%rsp)
  401313:	8b 44 24 ec          	mov    -0x14(%rsp),%eax
  401317:	69 c0 d4 2c 00 00    	imul   $0x2cd4,%eax,%eax
  40131d:	89 44 24 ec          	mov    %eax,-0x14(%rsp)
  401321:	8b 44 24 e0          	mov    -0x20(%rsp),%eax
  401325:	69 c0 5b 5b 00 00    	imul   $0x5b5b,%eax,%eax
  40132b:	89 44 24 e0          	mov    %eax,-0x20(%rsp)
  40132f:	8b 44 24 e4          	mov    -0x1c(%rsp),%eax
  401333:	69 c0 45 22 00 00    	imul   $0x2245,%eax,%eax
  401339:	89 44 24 e4          	mov    %eax,-0x1c(%rsp)
  40133d:	8b 44 24 dc          	mov    -0x24(%rsp),%eax
  401341:	69 c0 66 a9 00 00    	imul   $0xa966,%eax,%eax
  401347:	89 44 24 dc          	mov    %eax,-0x24(%rsp)
  40134b:	8b 44 24 e4          	mov    -0x1c(%rsp),%eax
  40134f:	69 c0 c2 3a 00 00    	imul   $0x3ac2,%eax,%eax
  401355:	89 44 24 e4          	mov    %eax,-0x1c(%rsp)
  401359:	8b 44 24 d4          	mov    -0x2c(%rsp),%eax
  40135d:	69 c0 42 7c 00 00    	imul   $0x7c42,%eax,%eax
  401363:	89 44 24 d4          	mov    %eax,-0x2c(%rsp)
  401367:	8b 44 24 dc          	mov    -0x24(%rsp),%eax
  40136b:	69 c0 0c 20 00 00    	imul   $0x200c,%eax,%eax
  401371:	89 44 24 dc          	mov    %eax,-0x24(%rsp)
  401375:	8b 44 24 f0          	mov    -0x10(%rsp),%eax
  401379:	69 c0 d9 73 00 00    	imul   $0x73d9,%eax,%eax
  40137f:	89 44 24 f0          	mov    %eax,-0x10(%rsp)
  401383:	8b 44 24 e4          	mov    -0x1c(%rsp),%eax
  401387:	69 c0 1a 8b 00 00    	imul   $0x8b1a,%eax,%eax
  40138d:	89 44 24 e4          	mov    %eax,-0x1c(%rsp)
  401391:	8b 44 24 dc          	mov    -0x24(%rsp),%eax
  401395:	69 c0 31 b8 00 00    	imul   $0xb831,%eax,%eax
  40139b:	89 44 24 dc          	mov    %eax,-0x24(%rsp)
  40139f:	8b 44 24 e4          	mov    -0x1c(%rsp),%eax
  4013a3:	69 c0 fc a8 00 00    	imul   $0xa8fc,%eax,%eax
  4013a9:	89 44 24 e4          	mov    %eax,-0x1c(%rsp)
  4013ad:	8b 44 24 f4          	mov    -0xc(%rsp),%eax
  4013b1:	69 c0 67 1d 00 00    	imul   $0x1d67,%eax,%eax
  4013b7:	89 44 24 f4          	mov    %eax,-0xc(%rsp)
  4013bb:	8b 44 24 dc          	mov    -0x24(%rsp),%eax
  4013bf:	69 c0 f9 4f 00 00    	imul   $0x4ff9,%eax,%eax
  4013c5:	89 44 24 dc          	mov    %eax,-0x24(%rsp)
  4013c9:	8b 44 24 e0          	mov    -0x20(%rsp),%eax
  4013cd:	69 c0 7c ae 00 00    	imul   $0xae7c,%eax,%eax
  4013d3:	89 44 24 e0          	mov    %eax,-0x20(%rsp)
  4013d7:	8b 44 24 ec          	mov    -0x14(%rsp),%eax
  4013db:	69 c0 6b 0f 00 00    	imul   $0xf6b,%eax,%eax
  4013e1:	89 44 24 ec          	mov    %eax,-0x14(%rsp)
  4013e5:	8b 44 24 e0          	mov    -0x20(%rsp),%eax
  4013e9:	69 c0 dd 98 00 00    	imul   $0x98dd,%eax,%eax
  4013ef:	89 44 24 e0          	mov    %eax,-0x20(%rsp)
  4013f3:	8b 44 24 d0          	mov    -0x30(%rsp),%eax
  4013f7:	69 c0 13 b5 00 00    	imul   $0xb513,%eax,%eax
  4013fd:	89 44 24 d0          	mov    %eax,-0x30(%rsp)
  401401:	8b 44 24 f0          	mov    -0x10(%rsp),%eax
  401405:	69 c0 0a e9 00 00    	imul   $0xe90a,%eax,%eax
  40140b:	89 44 24 f0          	mov    %eax,-0x10(%rsp)
  40140f:	8b 44 24 d8          	mov    -0x28(%rsp),%eax
  401413:	69 c0 aa 6b 00 00    	imul   $0x6baa,%eax,%eax
  401419:	89 44 24 d8          	mov    %eax,-0x28(%rsp)
  40141d:	8b 44 24 e8          	mov    -0x18(%rsp),%eax
  401421:	69 c0 ef 49 00 00    	imul   $0x49ef,%eax,%eax
  401427:	89 44 24 e8          	mov    %eax,-0x18(%rsp)
  40142b:	8b 44 24 ec          	mov    -0x14(%rsp),%eax
  40142f:	69 c0 10 be 00 00    	imul   $0xbe10,%eax,%eax
  401435:	89 44 24 ec          	mov    %eax,-0x14(%rsp)
  401439:	8b 44 24 e0          	mov    -0x20(%rsp),%eax
  40143d:	69 c0 ba b0 00 00    	imul   $0xb0ba,%eax,%eax
  401443:	89 44 24 e0          	mov    %eax,-0x20(%rsp)
  401447:	8b 44 24 ec          	mov    -0x14(%rsp),%eax
  40144b:	69 c0 81 76 00 00    	imul   $0x7681,%eax,%eax
  401451:	89 44 24 ec          	mov    %eax,-0x14(%rsp)
  401455:	8b 44 24 ec          	mov    -0x14(%rsp),%eax
  401459:	69 c0 ab 5b 00 00    	imul   $0x5bab,%eax,%eax
  40145f:	89 44 24 ec          	mov    %eax,-0x14(%rsp)
  401463:	8b 44 24 e0          	mov    -0x20(%rsp),%eax
  401467:	69 c0 86 62 00 00    	imul   $0x6286,%eax,%eax
  40146d:	89 44 24 e0          	mov    %eax,-0x20(%rsp)
  401471:	8b 44 24 e0          	mov    -0x20(%rsp),%eax
  401475:	69 c0 56 93 00 00    	imul   $0x9356,%eax,%eax
  40147b:	89 44 24 e0          	mov    %eax,-0x20(%rsp)
  40147f:	8b 44 24 f0          	mov    -0x10(%rsp),%eax
  401483:	69 c0 c8 4f 00 00    	imul   $0x4fc8,%eax,%eax
  401489:	89 44 24 f0          	mov    %eax,-0x10(%rsp)
  40148d:	8b 44 24 e4          	mov    -0x1c(%rsp),%eax
  401491:	69 c0 9b d5 00 00    	imul   $0xd59b,%eax,%eax
  401497:	89 44 24 e4          	mov    %eax,-0x1c(%rsp)
  40149b:	8b 44 24 ec          	mov    -0x14(%rsp),%eax
  40149f:	69 c0 5d f9 00 00    	imul   $0xf95d,%eax,%eax
  4014a5:	89 44 24 ec          	mov    %eax,-0x14(%rsp)
  4014a9:	8b 44 24 e4          	mov    -0x1c(%rsp),%eax
  4014ad:	69 c0 b9 cb 00 00    	imul   $0xcbb9,%eax,%eax
  4014b3:	89 44 24 e4          	mov    %eax,-0x1c(%rsp)
  4014b7:	8b 44 24 d4          	mov    -0x2c(%rsp),%eax
  4014bb:	69 c0 69 46 00 00    	imul   $0x4669,%eax,%eax
  4014c1:	89 44 24 d4          	mov    %eax,-0x2c(%rsp)
  4014c5:	8b 44 24 e0          	mov    -0x20(%rsp),%eax
  4014c9:	69 c0 09 45 00 00    	imul   $0x4509,%eax,%eax
  4014cf:	89 44 24 e0          	mov    %eax,-0x20(%rsp)
  4014d3:	8b 44 24 f4          	mov    -0xc(%rsp),%eax
  4014d7:	69 c0 cf 58 00 00    	imul   $0x58cf,%eax,%eax
  4014dd:	89 44 24 f4          	mov    %eax,-0xc(%rsp)
  4014e1:	8b 44 24 f4          	mov    -0xc(%rsp),%eax
  4014e5:	69 c0 d4 d2 00 00    	imul   $0xd2d4,%eax,%eax
  4014eb:	89 44 24 f4          	mov    %eax,-0xc(%rsp)
  4014ef:	8b 44 24 e8          	mov    -0x18(%rsp),%eax
  4014f3:	69 c0 83 c0 00 00    	imul   $0xc083,%eax,%eax
  4014f9:	89 44 24 e8          	mov    %eax,-0x18(%rsp)
  4014fd:	8b 44 24 dc          	mov    -0x24(%rsp),%eax
  401501:	69 c0 e6 6a 00 00    	imul   $0x6ae6,%eax,%eax
  401507:	89 44 24 dc          	mov    %eax,-0x24(%rsp)
  40150b:	8b 44 24 f0          	mov    -0x10(%rsp),%eax
  40150f:	69 c0 f5 e2 00 00    	imul   $0xe2f5,%eax,%eax
  401515:	89 44 24 f0          	mov    %eax,-0x10(%rsp)
  401519:	8b 44 24 f0          	mov    -0x10(%rsp),%eax
  40151d:	69 c0 b0 5c 00 00    	imul   $0x5cb0,%eax,%eax
  401523:	89 44 24 f0          	mov    %eax,-0x10(%rsp)
  401527:	8b 44 24 dc          	mov    -0x24(%rsp),%eax
  40152b:	69 c0 33 40 00 00    	imul   $0x4033,%eax,%eax
  401531:	89 44 24 dc          	mov    %eax,-0x24(%rsp)
  401535:	8b 44 24 d4          	mov    -0x2c(%rsp),%eax
  401539:	69 c0 12 5b 00 00    	imul   $0x5b12,%eax,%eax
  40153f:	89 44 24 d4          	mov    %eax,-0x2c(%rsp)
  401543:	8b 44 24 f0          	mov    -0x10(%rsp),%eax
  401547:	69 c0 37 cc 00 00    	imul   $0xcc37,%eax,%eax
  40154d:	89 44 24 f0          	mov    %eax,-0x10(%rsp)
  401551:	8b 44 24 f4          	mov    -0xc(%rsp),%eax
  401555:	69 c0 3b ae 00 00    	imul   $0xae3b,%eax,%eax
  40155b:	89 44 24 f4          	mov    %eax,-0xc(%rsp)
  40155f:	8b 44 24 d0          	mov    -0x30(%rsp),%eax
  401563:	69 c0 26 9f 00 00    	imul   $0x9f26,%eax,%eax
  401569:	89 44 24 d0          	mov    %eax,-0x30(%rsp)
  40156d:	8b 44 24 d8          	mov    -0x28(%rsp),%eax
  401571:	69 c0 c1 bb 00 00    	imul   $0xbbc1,%eax,%eax
  401577:	89 44 24 d8          	mov    %eax,-0x28(%rsp)
  40157b:	8b 44 24 e0          	mov    -0x20(%rsp),%eax
  40157f:	69 c0 ed 07 00 00    	imul   $0x7ed,%eax,%eax
  401585:	89 44 24 e0          	mov    %eax,-0x20(%rsp)
  401589:	8b 44 24 e8          	mov    -0x18(%rsp),%eax
  40158d:	69 c0 4d a1 00 00    	imul   $0xa14d,%eax,%eax
  401593:	89 44 24 e8          	mov    %eax,-0x18(%rsp)
  401597:	8b 44 24 d0          	mov    -0x30(%rsp),%eax
  40159b:	69 c0 11 ec 00 00    	imul   $0xec11,%eax,%eax
  4015a1:	89 44 24 d0          	mov    %eax,-0x30(%rsp)
  4015a5:	8b 44 24 f4          	mov    -0xc(%rsp),%eax
  4015a9:	69 c0 d2 49 00 00    	imul   $0x49d2,%eax,%eax
  4015af:	89 44 24 f4          	mov    %eax,-0xc(%rsp)
  4015b3:	8b 44 24 ec          	mov    -0x14(%rsp),%eax
  4015b7:	69 c0 69 14 00 00    	imul   $0x1469,%eax,%eax
  4015bd:	89 44 24 ec          	mov    %eax,-0x14(%rsp)
  4015c1:	8b 44 24 e0          	mov    -0x20(%rsp),%eax
  4015c5:	69 c0 5a 09 00 00    	imul   $0x95a,%eax,%eax
  4015cb:	89 44 24 e0          	mov    %eax,-0x20(%rsp)
  4015cf:	8b 44 24 e8          	mov    -0x18(%rsp),%eax
  4015d3:	69 c0 6b 39 00 00    	imul   $0x396b,%eax,%eax
  4015d9:	89 44 24 e8          	mov    %eax,-0x18(%rsp)
  4015dd:	8b 44 24 f0          	mov    -0x10(%rsp),%eax
  4015e1:	69 c0 80 53 00 00    	imul   $0x5380,%eax,%eax
  4015e7:	89 44 24 f0          	mov    %eax,-0x10(%rsp)
  4015eb:	8b 44 24 d0          	mov    -0x30(%rsp),%eax
  4015ef:	69 c0 e0 8f 00 00    	imul   $0x8fe0,%eax,%eax
  4015f5:	89 44 24 d0          	mov    %eax,-0x30(%rsp)
  4015f9:	8b 44 24 d4          	mov    -0x2c(%rsp),%eax
  4015fd:	69 c0 d7 75 00 00    	imul   $0x75d7,%eax,%eax
  401603:	89 44 24 d4          	mov    %eax,-0x2c(%rsp)
  401607:	8b 44 24 ec          	mov    -0x14(%rsp),%eax
  40160b:	69 c0 8b 68 00 00    	imul   $0x688b,%eax,%eax
  401611:	89 44 24 ec          	mov    %eax,-0x14(%rsp)
  401615:	8b 44 24 d8          	mov    -0x28(%rsp),%eax
  401619:	69 c0 cc 72 00 00    	imul   $0x72cc,%eax,%eax
  40161f:	89 44 24 d8          	mov    %eax,-0x28(%rsp)
  401623:	ba 00 00 00 00       	mov    $0x0,%edx
  401628:	b8 00 00 00 00       	mov    $0x0,%eax
  40162d:	eb 0b                	jmp    40163a <scramble+0x45c>
  40162f:	89 d1                	mov    %edx,%ecx
  401631:	8b 4c 8c d0          	mov    -0x30(%rsp,%rcx,4),%ecx
  401635:	01 c8                	add    %ecx,%eax
  401637:	83 c2 01             	add    $0x1,%edx
  40163a:	83 fa 09             	cmp    $0x9,%edx
  40163d:	76 f0                	jbe    40162f <scramble+0x451>
  40163f:	f3 c3                	repz retq 

0000000000401641 <getbuf>:
  401641:	48 83 ec 28          	sub    $0x28,%rsp	#分配40字节空间
  401645:	48 89 e7             	mov    %rsp,%rdi
  401648:	e8 2d 02 00 00       	callq  40187a <Gets>
  40164d:	b8 01 00 00 00       	mov    $0x1,%eax
  401652:	48 83 c4 28          	add    $0x28,%rsp
  401656:	c3                   	retq   

0000000000401657 <touch1>:#起始地址
  401657:	48 83 ec 08          	sub    $0x8,%rsp
  40165b:	c7 05 77 2e 20 00 01 	movl   $0x1,0x202e77(%rip)        # 6044dc <vlevel>
  401662:	00 00 00 
  401665:	bf 95 2d 40 00       	mov    $0x402d95,%edi
  40166a:	e8 71 f5 ff ff       	callq  400be0 <puts@plt>
  40166f:	bf 01 00 00 00       	mov    $0x1,%edi
  401674:	e8 f0 03 00 00       	callq  401a69 <validate>
  401679:	bf 00 00 00 00       	mov    $0x0,%edi
  40167e:	e8 ed f6 ff ff       	callq  400d70 <exit@plt>

0000000000401683 <touch2>:
  401683:	48 83 ec 08          	sub    $0x8,%rsp
  401687:	89 fe                	mov    %edi,%esi
  401689:	c7 05 49 2e 20 00 02 	movl   $0x2,0x202e49(%rip)        # 6044dc <vlevel>
  401690:	00 00 00 
  401693:	3b 3d 4b 2e 20 00    	cmp    0x202e4b(%rip),%edi        # 6044e4 <cookie>
  401699:	75 1b                	jne    4016b6 <touch2+0x33>
  40169b:	bf b8 2d 40 00       	mov    $0x402db8,%edi
  4016a0:	b8 00 00 00 00       	mov    $0x0,%eax
  4016a5:	e8 66 f5 ff ff       	callq  400c10 <printf@plt>
  4016aa:	bf 02 00 00 00       	mov    $0x2,%edi
  4016af:	e8 b5 03 00 00       	callq  401a69 <validate>
  4016b4:	eb 19                	jmp    4016cf <touch2+0x4c>
  4016b6:	bf e0 2d 40 00       	mov    $0x402de0,%edi
  4016bb:	b8 00 00 00 00       	mov    $0x0,%eax
  4016c0:	e8 4b f5 ff ff       	callq  400c10 <printf@plt>
  4016c5:	bf 02 00 00 00       	mov    $0x2,%edi
  4016ca:	e8 4c 04 00 00       	callq  401b1b <fail>
  4016cf:	bf 00 00 00 00       	mov    $0x0,%edi
  4016d4:	e8 97 f6 ff ff       	callq  400d70 <exit@plt>

00000000004016d9 <hexmatch>:
  4016d9:	41 54                	push   %r12
  4016db:	55                   	push   %rbp
  4016dc:	53                   	push   %rbx
  4016dd:	48 83 ec 70          	sub    $0x70,%rsp
  4016e1:	41 89 fc             	mov    %edi,%r12d
  4016e4:	48 89 f5             	mov    %rsi,%rbp
  4016e7:	e8 e4 f5 ff ff       	callq  400cd0 <random@plt>
  4016ec:	48 89 c1             	mov    %rax,%rcx
  4016ef:	48 ba 0b d7 a3 70 3d 	movabs $0xa3d70a3d70a3d70b,%rdx
  4016f6:	0a d7 a3 
  4016f9:	48 f7 ea             	imul   %rdx
  4016fc:	48 8d 04 0a          	lea    (%rdx,%rcx,1),%rax
  401700:	48 c1 f8 06          	sar    $0x6,%rax
  401704:	48 89 ce             	mov    %rcx,%rsi
  401707:	48 c1 fe 3f          	sar    $0x3f,%rsi
  40170b:	48 29 f0             	sub    %rsi,%rax
  40170e:	48 8d 04 80          	lea    (%rax,%rax,4),%rax
  401712:	48 8d 04 80          	lea    (%rax,%rax,4),%rax
  401716:	48 c1 e0 02          	shl    $0x2,%rax
  40171a:	48 29 c1             	sub    %rax,%rcx
  40171d:	48 8d 1c 0c          	lea    (%rsp,%rcx,1),%rbx
  401721:	44 89 e2             	mov    %r12d,%edx
  401724:	be b2 2d 40 00       	mov    $0x402db2,%esi
  401729:	48 89 df             	mov    %rbx,%rdi
  40172c:	b8 00 00 00 00       	mov    $0x0,%eax
  401731:	e8 2a f6 ff ff       	callq  400d60 <sprintf@plt>
  401736:	ba 09 00 00 00       	mov    $0x9,%edx
  40173b:	48 89 de             	mov    %rbx,%rsi
  40173e:	48 89 ef             	mov    %rbp,%rdi
  401741:	e8 7a f4 ff ff       	callq  400bc0 <strncmp@plt>
  401746:	85 c0                	test   %eax,%eax
  401748:	0f 94 c0             	sete   %al
  40174b:	0f b6 c0             	movzbl %al,%eax
  40174e:	48 83 c4 70          	add    $0x70,%rsp
  401752:	5b                   	pop    %rbx
  401753:	5d                   	pop    %rbp
  401754:	41 5c                	pop    %r12
  401756:	c3                   	retq   

0000000000401757 <touch3>:
  401757:	53                   	push   %rbx
  401758:	48 89 fb             	mov    %rdi,%rbx
  40175b:	c7 05 77 2d 20 00 03 	movl   $0x3,0x202d77(%rip)        # 6044dc <vlevel>
  401762:	00 00 00 
  401765:	48 89 fe             	mov    %rdi,%rsi
  401768:	8b 3d 76 2d 20 00    	mov    0x202d76(%rip),%edi        # 6044e4 <cookie>
  40176e:	e8 66 ff ff ff       	callq  4016d9 <hexmatch>
  401773:	85 c0                	test   %eax,%eax
  401775:	74 1e                	je     401795 <touch3+0x3e>
  401777:	48 89 de             	mov    %rbx,%rsi
  40177a:	bf 08 2e 40 00       	mov    $0x402e08,%edi
  40177f:	b8 00 00 00 00       	mov    $0x0,%eax
  401784:	e8 87 f4 ff ff       	callq  400c10 <printf@plt>
  401789:	bf 03 00 00 00       	mov    $0x3,%edi
  40178e:	e8 d6 02 00 00       	callq  401a69 <validate>
  401793:	eb 1c                	jmp    4017b1 <touch3+0x5a>
  401795:	48 89 de             	mov    %rbx,%rsi
  401798:	bf 30 2e 40 00       	mov    $0x402e30,%edi
  40179d:	b8 00 00 00 00       	mov    $0x0,%eax
  4017a2:	e8 69 f4 ff ff       	callq  400c10 <printf@plt>
  4017a7:	bf 03 00 00 00       	mov    $0x3,%edi
  4017ac:	e8 6a 03 00 00       	callq  401b1b <fail>
  4017b1:	bf 00 00 00 00       	mov    $0x0,%edi
  4017b6:	e8 b5 f5 ff ff       	callq  400d70 <exit@plt>

00000000004017bb <test>:
  4017bb:	48 83 ec 08          	sub    $0x8,%rsp
  4017bf:	b8 00 00 00 00       	mov    $0x0,%eax
  4017c4:	e8 78 fe ff ff       	callq  401641 <getbuf>
  4017c9:	89 c6                	mov    %eax,%esi
  4017cb:	bf 58 2e 40 00       	mov    $0x402e58,%edi
  4017d0:	b8 00 00 00 00       	mov    $0x0,%eax
  4017d5:	e8 36 f4 ff ff       	callq  400c10 <printf@plt>
  4017da:	48 83 c4 08          	add    $0x8,%rsp
  4017de:	c3                   	retq   
  4017df:	90                   	nop

00000000004017e0 <save_char>:
  4017e0:	8b 05 1e 39 20 00    	mov    0x20391e(%rip),%eax        # 605104 <gets_cnt>
  4017e6:	3d ff 03 00 00       	cmp    $0x3ff,%eax
  4017eb:	7f 49                	jg     401836 <save_char+0x56>
  4017ed:	8d 14 40             	lea    (%rax,%rax,2),%edx
  4017f0:	89 f9                	mov    %edi,%ecx
  4017f2:	c0 e9 04             	shr    $0x4,%cl
  4017f5:	83 e1 0f             	and    $0xf,%ecx
  4017f8:	0f b6 b1 80 31 40 00 	movzbl 0x403180(%rcx),%esi
  4017ff:	48 63 ca             	movslq %edx,%rcx
  401802:	40 88 b1 00 45 60 00 	mov    %sil,0x604500(%rcx)
  401809:	8d 4a 01             	lea    0x1(%rdx),%ecx
  40180c:	83 e7 0f             	and    $0xf,%edi
  40180f:	0f b6 b7 80 31 40 00 	movzbl 0x403180(%rdi),%esi
  401816:	48 63 c9             	movslq %ecx,%rcx
  401819:	40 88 b1 00 45 60 00 	mov    %sil,0x604500(%rcx)
  401820:	83 c2 02             	add    $0x2,%edx
  401823:	48 63 d2             	movslq %edx,%rdx
  401826:	c6 82 00 45 60 00 20 	movb   $0x20,0x604500(%rdx)
  40182d:	83 c0 01             	add    $0x1,%eax
  401830:	89 05 ce 38 20 00    	mov    %eax,0x2038ce(%rip)        # 605104 <gets_cnt>
  401836:	f3 c3                	repz retq 

0000000000401838 <save_term>:
  401838:	8b 05 c6 38 20 00    	mov    0x2038c6(%rip),%eax        # 605104 <gets_cnt>
  40183e:	8d 04 40             	lea    (%rax,%rax,2),%eax
  401841:	48 98                	cltq   
  401843:	c6 80 00 45 60 00 00 	movb   $0x0,0x604500(%rax)
  40184a:	c3                   	retq   

000000000040184b <check_fail>:
  40184b:	48 83 ec 08          	sub    $0x8,%rsp
  40184f:	0f be 35 b2 38 20 00 	movsbl 0x2038b2(%rip),%esi        # 605108 <target_prefix>
  401856:	b9 00 45 60 00       	mov    $0x604500,%ecx
  40185b:	8b 15 77 2c 20 00    	mov    0x202c77(%rip),%edx        # 6044d8 <check_level>
  401861:	bf 7b 2e 40 00       	mov    $0x402e7b,%edi
  401866:	b8 00 00 00 00       	mov    $0x0,%eax
  40186b:	e8 a0 f3 ff ff       	callq  400c10 <printf@plt>
  401870:	bf 01 00 00 00       	mov    $0x1,%edi
  401875:	e8 f6 f4 ff ff       	callq  400d70 <exit@plt>

000000000040187a <Gets>:
  40187a:	41 54                	push   %r12
  40187c:	55                   	push   %rbp
  40187d:	53                   	push   %rbx
  40187e:	49 89 fc             	mov    %rdi,%r12
  401881:	c7 05 79 38 20 00 00 	movl   $0x0,0x203879(%rip)        # 605104 <gets_cnt>
  401888:	00 00 00 
  40188b:	48 89 fb             	mov    %rdi,%rbx
  40188e:	eb 11                	jmp    4018a1 <Gets+0x27>
  401890:	48 8d 6b 01          	lea    0x1(%rbx),%rbp
  401894:	88 03                	mov    %al,(%rbx)
  401896:	0f b6 f8             	movzbl %al,%edi
  401899:	e8 42 ff ff ff       	callq  4017e0 <save_char>
  40189e:	48 89 eb             	mov    %rbp,%rbx
  4018a1:	48 8b 3d 28 2c 20 00 	mov    0x202c28(%rip),%rdi        # 6044d0 <infile>
  4018a8:	e8 33 f4 ff ff       	callq  400ce0 <_IO_getc@plt>
  4018ad:	83 f8 ff             	cmp    $0xffffffff,%eax
  4018b0:	74 05                	je     4018b7 <Gets+0x3d>
  4018b2:	83 f8 0a             	cmp    $0xa,%eax
  4018b5:	75 d9                	jne    401890 <Gets+0x16>
  4018b7:	c6 03 00             	movb   $0x0,(%rbx)
  4018ba:	b8 00 00 00 00       	mov    $0x0,%eax
  4018bf:	e8 74 ff ff ff       	callq  401838 <save_term>
  4018c4:	4c 89 e0             	mov    %r12,%rax
  4018c7:	5b                   	pop    %rbx
  4018c8:	5d                   	pop    %rbp
  4018c9:	41 5c                	pop    %r12
  4018cb:	c3                   	retq   

00000000004018cc <notify_server>:
  4018cc:	83 3d 15 2c 20 00 00 	cmpl   $0x0,0x202c15(%rip)        # 6044e8 <is_checker>
  4018d3:	0f 85 8e 01 00 00    	jne    401a67 <notify_server+0x19b>
  4018d9:	53                   	push   %rbx
  4018da:	48 81 ec 10 40 00 00 	sub    $0x4010,%rsp
  4018e1:	89 fb                	mov    %edi,%ebx
  4018e3:	8b 05 1b 38 20 00    	mov    0x20381b(%rip),%eax        # 605104 <gets_cnt>
  4018e9:	83 c0 64             	add    $0x64,%eax
  4018ec:	3d 00 20 00 00       	cmp    $0x2000,%eax
  4018f1:	7e 19                	jle    40190c <notify_server+0x40>
  4018f3:	bf b0 2f 40 00       	mov    $0x402fb0,%edi
  4018f8:	b8 00 00 00 00       	mov    $0x0,%eax
  4018fd:	e8 0e f3 ff ff       	callq  400c10 <printf@plt>
  401902:	bf 01 00 00 00       	mov    $0x1,%edi
  401907:	e8 64 f4 ff ff       	callq  400d70 <exit@plt>
  40190c:	44 0f be 0d f4 37 20 	movsbl 0x2037f4(%rip),%r9d        # 605108 <target_prefix>
  401913:	00 
  401914:	83 3d 6d 2b 20 00 00 	cmpl   $0x0,0x202b6d(%rip)        # 604488 <notify>
  40191b:	74 09                	je     401926 <notify_server+0x5a>
  40191d:	44 8b 05 bc 2b 20 00 	mov    0x202bbc(%rip),%r8d        # 6044e0 <authkey>
  401924:	eb 06                	jmp    40192c <notify_server+0x60>
  401926:	41 b8 ff ff ff ff    	mov    $0xffffffff,%r8d
  40192c:	85 db                	test   %ebx,%ebx
  40192e:	74 07                	je     401937 <notify_server+0x6b>
  401930:	b9 91 2e 40 00       	mov    $0x402e91,%ecx
  401935:	eb 05                	jmp    40193c <notify_server+0x70>
  401937:	b9 96 2e 40 00       	mov    $0x402e96,%ecx
  40193c:	48 c7 44 24 08 00 45 	movq   $0x604500,0x8(%rsp)
  401943:	60 00 
  401945:	89 34 24             	mov    %esi,(%rsp)
  401948:	8b 15 fa 27 20 00    	mov    0x2027fa(%rip),%edx        # 604148 <target_id>
  40194e:	be 9b 2e 40 00       	mov    $0x402e9b,%esi
  401953:	48 8d bc 24 10 20 00 	lea    0x2010(%rsp),%rdi
  40195a:	00 
  40195b:	b8 00 00 00 00       	mov    $0x0,%eax
  401960:	e8 fb f3 ff ff       	callq  400d60 <sprintf@plt>
  401965:	83 3d 1c 2b 20 00 00 	cmpl   $0x0,0x202b1c(%rip)        # 604488 <notify>
  40196c:	74 78                	je     4019e6 <notify_server+0x11a>
  40196e:	85 db                	test   %ebx,%ebx
  401970:	74 68                	je     4019da <notify_server+0x10e>
  401972:	4c 8d 4c 24 10       	lea    0x10(%rsp),%r9
  401977:	41 b8 00 00 00 00    	mov    $0x0,%r8d
  40197d:	48 8d 8c 24 10 20 00 	lea    0x2010(%rsp),%rcx
  401984:	00 
  401985:	48 8b 15 c4 27 20 00 	mov    0x2027c4(%rip),%rdx        # 604150 <lab>
  40198c:	48 8b 35 c5 27 20 00 	mov    0x2027c5(%rip),%rsi        # 604158 <course>
  401993:	48 8b 3d a6 27 20 00 	mov    0x2027a6(%rip),%rdi        # 604140 <user_id>
  40199a:	e8 94 0f 00 00       	callq  402933 <driver_post>
  40199f:	85 c0                	test   %eax,%eax
  4019a1:	79 1e                	jns    4019c1 <notify_server+0xf5>
  4019a3:	48 8d 74 24 10       	lea    0x10(%rsp),%rsi
  4019a8:	bf b7 2e 40 00       	mov    $0x402eb7,%edi
  4019ad:	b8 00 00 00 00       	mov    $0x0,%eax
  4019b2:	e8 59 f2 ff ff       	callq  400c10 <printf@plt>
  4019b7:	bf 01 00 00 00       	mov    $0x1,%edi
  4019bc:	e8 af f3 ff ff       	callq  400d70 <exit@plt>
  4019c1:	bf e0 2f 40 00       	mov    $0x402fe0,%edi
  4019c6:	e8 15 f2 ff ff       	callq  400be0 <puts@plt>
  4019cb:	bf c3 2e 40 00       	mov    $0x402ec3,%edi
  4019d0:	e8 0b f2 ff ff       	callq  400be0 <puts@plt>
  4019d5:	e9 85 00 00 00       	jmpq   401a5f <notify_server+0x193>
  4019da:	bf cd 2e 40 00       	mov    $0x402ecd,%edi
  4019df:	e8 fc f1 ff ff       	callq  400be0 <puts@plt>
  4019e4:	eb 79                	jmp    401a5f <notify_server+0x193>
  4019e6:	85 db                	test   %ebx,%ebx
  4019e8:	74 08                	je     4019f2 <notify_server+0x126>
  4019ea:	be 91 2e 40 00       	mov    $0x402e91,%esi
  4019ef:	90                   	nop
  4019f0:	eb 05                	jmp    4019f7 <notify_server+0x12b>
  4019f2:	be 96 2e 40 00       	mov    $0x402e96,%esi
  4019f7:	bf 18 30 40 00       	mov    $0x403018,%edi
  4019fc:	b8 00 00 00 00       	mov    $0x0,%eax
  401a01:	e8 0a f2 ff ff       	callq  400c10 <printf@plt>
  401a06:	48 8b 35 33 27 20 00 	mov    0x202733(%rip),%rsi        # 604140 <user_id>
  401a0d:	bf d4 2e 40 00       	mov    $0x402ed4,%edi
  401a12:	b8 00 00 00 00       	mov    $0x0,%eax
  401a17:	e8 f4 f1 ff ff       	callq  400c10 <printf@plt>
  401a1c:	48 8b 35 35 27 20 00 	mov    0x202735(%rip),%rsi        # 604158 <course>
  401a23:	bf e1 2e 40 00       	mov    $0x402ee1,%edi
  401a28:	b8 00 00 00 00       	mov    $0x0,%eax
  401a2d:	e8 de f1 ff ff       	callq  400c10 <printf@plt>
  401a32:	48 8b 35 17 27 20 00 	mov    0x202717(%rip),%rsi        # 604150 <lab>
  401a39:	bf ed 2e 40 00       	mov    $0x402eed,%edi
  401a3e:	b8 00 00 00 00       	mov    $0x0,%eax
  401a43:	e8 c8 f1 ff ff       	callq  400c10 <printf@plt>
  401a48:	48 8d b4 24 10 20 00 	lea    0x2010(%rsp),%rsi
  401a4f:	00 
  401a50:	bf f6 2e 40 00       	mov    $0x402ef6,%edi
  401a55:	b8 00 00 00 00       	mov    $0x0,%eax
  401a5a:	e8 b1 f1 ff ff       	callq  400c10 <printf@plt>
  401a5f:	48 81 c4 10 40 00 00 	add    $0x4010,%rsp
  401a66:	5b                   	pop    %rbx
  401a67:	f3 c3                	repz retq 

0000000000401a69 <validate>:
  401a69:	53                   	push   %rbx
  401a6a:	89 fb                	mov    %edi,%ebx
  401a6c:	83 3d 75 2a 20 00 00 	cmpl   $0x0,0x202a75(%rip)        # 6044e8 <is_checker>
  401a73:	74 60                	je     401ad5 <validate+0x6c>
  401a75:	39 3d 61 2a 20 00    	cmp    %edi,0x202a61(%rip)        # 6044dc <vlevel>
  401a7b:	74 14                	je     401a91 <validate+0x28>
  401a7d:	bf 02 2f 40 00       	mov    $0x402f02,%edi
  401a82:	e8 59 f1 ff ff       	callq  400be0 <puts@plt>
  401a87:	b8 00 00 00 00       	mov    $0x0,%eax
  401a8c:	e8 ba fd ff ff       	callq  40184b <check_fail>
  401a91:	8b 35 41 2a 20 00    	mov    0x202a41(%rip),%esi        # 6044d8 <check_level>
  401a97:	39 fe                	cmp    %edi,%esi
  401a99:	74 1b                	je     401ab6 <validate+0x4d>
  401a9b:	89 fa                	mov    %edi,%edx
  401a9d:	bf 40 30 40 00       	mov    $0x403040,%edi
  401aa2:	b8 00 00 00 00       	mov    $0x0,%eax
  401aa7:	e8 64 f1 ff ff       	callq  400c10 <printf@plt>
  401aac:	b8 00 00 00 00       	mov    $0x0,%eax
  401ab1:	e8 95 fd ff ff       	callq  40184b <check_fail>
  401ab6:	0f be 35 4b 36 20 00 	movsbl 0x20364b(%rip),%esi        # 605108 <target_prefix>
  401abd:	b9 00 45 60 00       	mov    $0x604500,%ecx
  401ac2:	89 fa                	mov    %edi,%edx
  401ac4:	bf 20 2f 40 00       	mov    $0x402f20,%edi
  401ac9:	b8 00 00 00 00       	mov    $0x0,%eax
  401ace:	e8 3d f1 ff ff       	callq  400c10 <printf@plt>
  401ad3:	eb 44                	jmp    401b19 <validate+0xb0>
  401ad5:	39 3d 01 2a 20 00    	cmp    %edi,0x202a01(%rip)        # 6044dc <vlevel>
  401adb:	74 18                	je     401af5 <validate+0x8c>
  401add:	bf 02 2f 40 00       	mov    $0x402f02,%edi
  401ae2:	e8 f9 f0 ff ff       	callq  400be0 <puts@plt>
  401ae7:	89 de                	mov    %ebx,%esi
  401ae9:	bf 00 00 00 00       	mov    $0x0,%edi
  401aee:	e8 d9 fd ff ff       	callq  4018cc <notify_server>
  401af3:	eb 24                	jmp    401b19 <validate+0xb0>
  401af5:	0f be 15 0c 36 20 00 	movsbl 0x20360c(%rip),%edx        # 605108 <target_prefix>
  401afc:	89 fe                	mov    %edi,%esi
  401afe:	bf 68 30 40 00       	mov    $0x403068,%edi
  401b03:	b8 00 00 00 00       	mov    $0x0,%eax
  401b08:	e8 03 f1 ff ff       	callq  400c10 <printf@plt>
  401b0d:	89 de                	mov    %ebx,%esi
  401b0f:	bf 01 00 00 00       	mov    $0x1,%edi
  401b14:	e8 b3 fd ff ff       	callq  4018cc <notify_server>
  401b19:	5b                   	pop    %rbx
  401b1a:	c3                   	retq   

0000000000401b1b <fail>:
  401b1b:	48 83 ec 08          	sub    $0x8,%rsp
  401b1f:	83 3d c2 29 20 00 00 	cmpl   $0x0,0x2029c2(%rip)        # 6044e8 <is_checker>
  401b26:	74 0a                	je     401b32 <fail+0x17>
  401b28:	b8 00 00 00 00       	mov    $0x0,%eax
  401b2d:	e8 19 fd ff ff       	callq  40184b <check_fail>
  401b32:	89 fe                	mov    %edi,%esi
  401b34:	bf 00 00 00 00       	mov    $0x0,%edi
  401b39:	e8 8e fd ff ff       	callq  4018cc <notify_server>
  401b3e:	48 83 c4 08          	add    $0x8,%rsp
  401b42:	c3                   	retq   

0000000000401b43 <bushandler>:
  401b43:	48 83 ec 08          	sub    $0x8,%rsp
  401b47:	83 3d 9a 29 20 00 00 	cmpl   $0x0,0x20299a(%rip)        # 6044e8 <is_checker>
  401b4e:	74 14                	je     401b64 <bushandler+0x21>
  401b50:	bf 35 2f 40 00       	mov    $0x402f35,%edi
  401b55:	e8 86 f0 ff ff       	callq  400be0 <puts@plt>
  401b5a:	b8 00 00 00 00       	mov    $0x0,%eax
  401b5f:	e8 e7 fc ff ff       	callq  40184b <check_fail>
  401b64:	bf a0 30 40 00       	mov    $0x4030a0,%edi
  401b69:	e8 72 f0 ff ff       	callq  400be0 <puts@plt>
  401b6e:	bf 3f 2f 40 00       	mov    $0x402f3f,%edi
  401b73:	e8 68 f0 ff ff       	callq  400be0 <puts@plt>
  401b78:	be 00 00 00 00       	mov    $0x0,%esi
  401b7d:	bf 00 00 00 00       	mov    $0x0,%edi
  401b82:	e8 45 fd ff ff       	callq  4018cc <notify_server>
  401b87:	bf 01 00 00 00       	mov    $0x1,%edi
  401b8c:	e8 df f1 ff ff       	callq  400d70 <exit@plt>

0000000000401b91 <seghandler>:
  401b91:	48 83 ec 08          	sub    $0x8,%rsp
  401b95:	83 3d 4c 29 20 00 00 	cmpl   $0x0,0x20294c(%rip)        # 6044e8 <is_checker>
  401b9c:	74 14                	je     401bb2 <seghandler+0x21>
  401b9e:	bf 55 2f 40 00       	mov    $0x402f55,%edi
  401ba3:	e8 38 f0 ff ff       	callq  400be0 <puts@plt>
  401ba8:	b8 00 00 00 00       	mov    $0x0,%eax
  401bad:	e8 99 fc ff ff       	callq  40184b <check_fail>
  401bb2:	bf c0 30 40 00       	mov    $0x4030c0,%edi
  401bb7:	e8 24 f0 ff ff       	callq  400be0 <puts@plt>
  401bbc:	bf 3f 2f 40 00       	mov    $0x402f3f,%edi
  401bc1:	e8 1a f0 ff ff       	callq  400be0 <puts@plt>
  401bc6:	be 00 00 00 00       	mov    $0x0,%esi
  401bcb:	bf 00 00 00 00       	mov    $0x0,%edi
  401bd0:	e8 f7 fc ff ff       	callq  4018cc <notify_server>
  401bd5:	bf 01 00 00 00       	mov    $0x1,%edi
  401bda:	e8 91 f1 ff ff       	callq  400d70 <exit@plt>

0000000000401bdf <illegalhandler>:
  401bdf:	48 83 ec 08          	sub    $0x8,%rsp
  401be3:	83 3d fe 28 20 00 00 	cmpl   $0x0,0x2028fe(%rip)        # 6044e8 <is_checker>
  401bea:	74 14                	je     401c00 <illegalhandler+0x21>
  401bec:	bf 68 2f 40 00       	mov    $0x402f68,%edi
  401bf1:	e8 ea ef ff ff       	callq  400be0 <puts@plt>
  401bf6:	b8 00 00 00 00       	mov    $0x0,%eax
  401bfb:	e8 4b fc ff ff       	callq  40184b <check_fail>
  401c00:	bf e8 30 40 00       	mov    $0x4030e8,%edi
  401c05:	e8 d6 ef ff ff       	callq  400be0 <puts@plt>
  401c0a:	bf 3f 2f 40 00       	mov    $0x402f3f,%edi
  401c0f:	e8 cc ef ff ff       	callq  400be0 <puts@plt>
  401c14:	be 00 00 00 00       	mov    $0x0,%esi
  401c19:	bf 00 00 00 00       	mov    $0x0,%edi
  401c1e:	e8 a9 fc ff ff       	callq  4018cc <notify_server>
  401c23:	bf 01 00 00 00       	mov    $0x1,%edi
  401c28:	e8 43 f1 ff ff       	callq  400d70 <exit@plt>

0000000000401c2d <sigalrmhandler>:
  401c2d:	48 83 ec 08          	sub    $0x8,%rsp
  401c31:	83 3d b0 28 20 00 00 	cmpl   $0x0,0x2028b0(%rip)        # 6044e8 <is_checker>
  401c38:	74 14                	je     401c4e <sigalrmhandler+0x21>
  401c3a:	bf 7c 2f 40 00       	mov    $0x402f7c,%edi
  401c3f:	e8 9c ef ff ff       	callq  400be0 <puts@plt>
  401c44:	b8 00 00 00 00       	mov    $0x0,%eax
  401c49:	e8 fd fb ff ff       	callq  40184b <check_fail>
  401c4e:	be 05 00 00 00       	mov    $0x5,%esi
  401c53:	bf 18 31 40 00       	mov    $0x403118,%edi
  401c58:	b8 00 00 00 00       	mov    $0x0,%eax
  401c5d:	e8 ae ef ff ff       	callq  400c10 <printf@plt>
  401c62:	be 00 00 00 00       	mov    $0x0,%esi
  401c67:	bf 00 00 00 00       	mov    $0x0,%edi
  401c6c:	e8 5b fc ff ff       	callq  4018cc <notify_server>
  401c71:	bf 01 00 00 00       	mov    $0x1,%edi
  401c76:	e8 f5 f0 ff ff       	callq  400d70 <exit@plt>

0000000000401c7b <launch>:
  401c7b:	55                   	push   %rbp
  401c7c:	48 89 e5             	mov    %rsp,%rbp
  401c7f:	48 89 fa             	mov    %rdi,%rdx
  401c82:	48 8d 47 1e          	lea    0x1e(%rdi),%rax
  401c86:	48 83 e0 f0          	and    $0xfffffffffffffff0,%rax
  401c8a:	48 29 c4             	sub    %rax,%rsp
  401c8d:	48 8d 7c 24 0f       	lea    0xf(%rsp),%rdi
  401c92:	48 83 e7 f0          	and    $0xfffffffffffffff0,%rdi
  401c96:	be f4 00 00 00       	mov    $0xf4,%esi
  401c9b:	e8 80 ef ff ff       	callq  400c20 <memset@plt>
  401ca0:	48 8b 05 f9 27 20 00 	mov    0x2027f9(%rip),%rax        # 6044a0 <stdin@@GLIBC_2.2.5>
  401ca7:	48 39 05 22 28 20 00 	cmp    %rax,0x202822(%rip)        # 6044d0 <infile>
  401cae:	75 0f                	jne    401cbf <launch+0x44>
  401cb0:	bf 84 2f 40 00       	mov    $0x402f84,%edi
  401cb5:	b8 00 00 00 00       	mov    $0x0,%eax
  401cba:	e8 51 ef ff ff       	callq  400c10 <printf@plt>
  401cbf:	c7 05 13 28 20 00 00 	movl   $0x0,0x202813(%rip)        # 6044dc <vlevel>
  401cc6:	00 00 00 
  401cc9:	b8 00 00 00 00       	mov    $0x0,%eax
  401cce:	e8 e8 fa ff ff       	callq  4017bb <test>
  401cd3:	83 3d 0e 28 20 00 00 	cmpl   $0x0,0x20280e(%rip)        # 6044e8 <is_checker>
  401cda:	74 14                	je     401cf0 <launch+0x75>
  401cdc:	bf 91 2f 40 00       	mov    $0x402f91,%edi
  401ce1:	e8 fa ee ff ff       	callq  400be0 <puts@plt>
  401ce6:	b8 00 00 00 00       	mov    $0x0,%eax
  401ceb:	e8 5b fb ff ff       	callq  40184b <check_fail>
  401cf0:	bf 9c 2f 40 00       	mov    $0x402f9c,%edi
  401cf5:	e8 e6 ee ff ff       	callq  400be0 <puts@plt>
  401cfa:	c9                   	leaveq 
  401cfb:	c3                   	retq   

0000000000401cfc <stable_launch>:
  401cfc:	53                   	push   %rbx
  401cfd:	48 89 3d c4 27 20 00 	mov    %rdi,0x2027c4(%rip)        # 6044c8 <global_offset>
  401d04:	41 b9 00 00 00 00    	mov    $0x0,%r9d
  401d0a:	41 b8 00 00 00 00    	mov    $0x0,%r8d
  401d10:	b9 32 01 00 00       	mov    $0x132,%ecx
  401d15:	ba 07 00 00 00       	mov    $0x7,%edx
  401d1a:	be 00 00 10 00       	mov    $0x100000,%esi
  401d1f:	bf 00 60 58 55       	mov    $0x55586000,%edi
  401d24:	e8 d7 ee ff ff       	callq  400c00 <mmap@plt>
  401d29:	48 89 c3             	mov    %rax,%rbx
  401d2c:	48 3d 00 60 58 55    	cmp    $0x55586000,%rax
  401d32:	74 32                	je     401d66 <stable_launch+0x6a>
  401d34:	be 00 00 10 00       	mov    $0x100000,%esi
  401d39:	48 89 c7             	mov    %rax,%rdi
  401d3c:	e8 bf ef ff ff       	callq  400d00 <munmap@plt>
  401d41:	ba 00 60 58 55       	mov    $0x55586000,%edx
  401d46:	be 50 31 40 00       	mov    $0x403150,%esi
  401d4b:	48 8b 3d 5e 27 20 00 	mov    0x20275e(%rip),%rdi        # 6044b0 <stderr@@GLIBC_2.2.5>
  401d52:	b8 00 00 00 00       	mov    $0x0,%eax
  401d57:	e8 34 ef ff ff       	callq  400c90 <fprintf@plt>
  401d5c:	bf 01 00 00 00       	mov    $0x1,%edi
  401d61:	e8 0a f0 ff ff       	callq  400d70 <exit@plt>
  401d66:	48 8d 90 f8 ff 0f 00 	lea    0xffff8(%rax),%rdx
  401d6d:	48 89 15 9c 33 20 00 	mov    %rdx,0x20339c(%rip)        # 605110 <stack_top>
  401d74:	48 89 e0             	mov    %rsp,%rax
  401d77:	48 89 d4             	mov    %rdx,%rsp
  401d7a:	48 89 c2             	mov    %rax,%rdx
  401d7d:	48 89 15 3c 27 20 00 	mov    %rdx,0x20273c(%rip)        # 6044c0 <global_save_stack>
  401d84:	48 8b 3d 3d 27 20 00 	mov    0x20273d(%rip),%rdi        # 6044c8 <global_offset>
  401d8b:	e8 eb fe ff ff       	callq  401c7b <launch>
  401d90:	48 8b 05 29 27 20 00 	mov    0x202729(%rip),%rax        # 6044c0 <global_save_stack>
  401d97:	48 89 c4             	mov    %rax,%rsp
  401d9a:	be 00 00 10 00       	mov    $0x100000,%esi
  401d9f:	48 89 df             	mov    %rbx,%rdi
  401da2:	e8 59 ef ff ff       	callq  400d00 <munmap@plt>
  401da7:	5b                   	pop    %rbx
  401da8:	c3                   	retq   
  401da9:	0f 1f 80 00 00 00 00 	nopl   0x0(%rax)

0000000000401db0 <rio_readinitb>:
  401db0:	89 37                	mov    %esi,(%rdi)
  401db2:	c7 47 04 00 00 00 00 	movl   $0x0,0x4(%rdi)
  401db9:	48 8d 47 10          	lea    0x10(%rdi),%rax
  401dbd:	48 89 47 08          	mov    %rax,0x8(%rdi)
  401dc1:	c3                   	retq   

0000000000401dc2 <sigalrm_handler>:
  401dc2:	48 83 ec 08          	sub    $0x8,%rsp
  401dc6:	ba 00 00 00 00       	mov    $0x0,%edx
  401dcb:	be 90 31 40 00       	mov    $0x403190,%esi
  401dd0:	48 8b 3d d9 26 20 00 	mov    0x2026d9(%rip),%rdi        # 6044b0 <stderr@@GLIBC_2.2.5>
  401dd7:	b8 00 00 00 00       	mov    $0x0,%eax
  401ddc:	e8 af ee ff ff       	callq  400c90 <fprintf@plt>
  401de1:	bf 01 00 00 00       	mov    $0x1,%edi
  401de6:	e8 85 ef ff ff       	callq  400d70 <exit@plt>

0000000000401deb <urlencode>:
  401deb:	41 54                	push   %r12
  401ded:	55                   	push   %rbp
  401dee:	53                   	push   %rbx
  401def:	48 83 ec 10          	sub    $0x10,%rsp
  401df3:	48 89 fb             	mov    %rdi,%rbx
  401df6:	48 89 f5             	mov    %rsi,%rbp
  401df9:	b8 00 00 00 00       	mov    $0x0,%eax
  401dfe:	48 c7 c1 ff ff ff ff 	mov    $0xffffffffffffffff,%rcx
  401e05:	f2 ae                	repnz scas %es:(%rdi),%al
  401e07:	48 f7 d1             	not    %rcx
  401e0a:	8d 41 ff             	lea    -0x1(%rcx),%eax
  401e0d:	e9 93 00 00 00       	jmpq   401ea5 <urlencode+0xba>
  401e12:	0f b6 13             	movzbl (%rbx),%edx
  401e15:	80 fa 2a             	cmp    $0x2a,%dl
  401e18:	0f 94 c1             	sete   %cl
  401e1b:	80 fa 2d             	cmp    $0x2d,%dl
  401e1e:	0f 94 c0             	sete   %al
  401e21:	08 c1                	or     %al,%cl
  401e23:	75 1f                	jne    401e44 <urlencode+0x59>
  401e25:	80 fa 2e             	cmp    $0x2e,%dl
  401e28:	74 1a                	je     401e44 <urlencode+0x59>
  401e2a:	80 fa 5f             	cmp    $0x5f,%dl
  401e2d:	74 15                	je     401e44 <urlencode+0x59>
  401e2f:	8d 42 d0             	lea    -0x30(%rdx),%eax
  401e32:	3c 09                	cmp    $0x9,%al
  401e34:	76 0e                	jbe    401e44 <urlencode+0x59>
  401e36:	8d 42 bf             	lea    -0x41(%rdx),%eax
  401e39:	3c 19                	cmp    $0x19,%al
  401e3b:	76 07                	jbe    401e44 <urlencode+0x59>
  401e3d:	8d 42 9f             	lea    -0x61(%rdx),%eax
  401e40:	3c 19                	cmp    $0x19,%al
  401e42:	77 09                	ja     401e4d <urlencode+0x62>
  401e44:	88 55 00             	mov    %dl,0x0(%rbp)
  401e47:	48 8d 6d 01          	lea    0x1(%rbp),%rbp
  401e4b:	eb 51                	jmp    401e9e <urlencode+0xb3>
  401e4d:	80 fa 20             	cmp    $0x20,%dl
  401e50:	75 0a                	jne    401e5c <urlencode+0x71>
  401e52:	c6 45 00 2b          	movb   $0x2b,0x0(%rbp)
  401e56:	48 8d 6d 01          	lea    0x1(%rbp),%rbp
  401e5a:	eb 42                	jmp    401e9e <urlencode+0xb3>
  401e5c:	8d 42 e0             	lea    -0x20(%rdx),%eax
  401e5f:	3c 5f                	cmp    $0x5f,%al
  401e61:	0f 96 c1             	setbe  %cl
  401e64:	80 fa 09             	cmp    $0x9,%dl
  401e67:	0f 94 c0             	sete   %al
  401e6a:	08 c1                	or     %al,%cl
  401e6c:	74 45                	je     401eb3 <urlencode+0xc8>
  401e6e:	0f b6 d2             	movzbl %dl,%edx
  401e71:	be 28 32 40 00       	mov    $0x403228,%esi
  401e76:	48 89 e7             	mov    %rsp,%rdi
  401e79:	b8 00 00 00 00       	mov    $0x0,%eax
  401e7e:	e8 dd ee ff ff       	callq  400d60 <sprintf@plt>
  401e83:	0f b6 04 24          	movzbl (%rsp),%eax
  401e87:	88 45 00             	mov    %al,0x0(%rbp)
  401e8a:	0f b6 44 24 01       	movzbl 0x1(%rsp),%eax
  401e8f:	88 45 01             	mov    %al,0x1(%rbp)
  401e92:	0f b6 44 24 02       	movzbl 0x2(%rsp),%eax
  401e97:	88 45 02             	mov    %al,0x2(%rbp)
  401e9a:	48 8d 6d 03          	lea    0x3(%rbp),%rbp
  401e9e:	48 83 c3 01          	add    $0x1,%rbx
  401ea2:	44 89 e0             	mov    %r12d,%eax
  401ea5:	44 8d 60 ff          	lea    -0x1(%rax),%r12d
  401ea9:	85 c0                	test   %eax,%eax
  401eab:	0f 85 61 ff ff ff    	jne    401e12 <urlencode+0x27>
  401eb1:	eb 05                	jmp    401eb8 <urlencode+0xcd>
  401eb3:	b8 ff ff ff ff       	mov    $0xffffffff,%eax
  401eb8:	48 83 c4 10          	add    $0x10,%rsp
  401ebc:	5b                   	pop    %rbx
  401ebd:	5d                   	pop    %rbp
  401ebe:	41 5c                	pop    %r12
  401ec0:	c3                   	retq   

0000000000401ec1 <rio_writen>:
  401ec1:	41 55                	push   %r13
  401ec3:	41 54                	push   %r12
  401ec5:	55                   	push   %rbp
  401ec6:	53                   	push   %rbx
  401ec7:	48 83 ec 08          	sub    $0x8,%rsp
  401ecb:	41 89 fc             	mov    %edi,%r12d
  401ece:	48 89 f5             	mov    %rsi,%rbp
  401ed1:	49 89 d5             	mov    %rdx,%r13
  401ed4:	48 89 d3             	mov    %rdx,%rbx
  401ed7:	eb 28                	jmp    401f01 <rio_writen+0x40>
  401ed9:	48 89 da             	mov    %rbx,%rdx
  401edc:	48 89 ee             	mov    %rbp,%rsi
  401edf:	44 89 e7             	mov    %r12d,%edi
  401ee2:	e8 09 ed ff ff       	callq  400bf0 <write@plt>
  401ee7:	48 85 c0             	test   %rax,%rax
  401eea:	7f 0f                	jg     401efb <rio_writen+0x3a>
  401eec:	e8 af ec ff ff       	callq  400ba0 <__errno_location@plt>
  401ef1:	83 38 04             	cmpl   $0x4,(%rax)
  401ef4:	75 15                	jne    401f0b <rio_writen+0x4a>
  401ef6:	b8 00 00 00 00       	mov    $0x0,%eax
  401efb:	48 29 c3             	sub    %rax,%rbx
  401efe:	48 01 c5             	add    %rax,%rbp
  401f01:	48 85 db             	test   %rbx,%rbx
  401f04:	75 d3                	jne    401ed9 <rio_writen+0x18>
  401f06:	4c 89 e8             	mov    %r13,%rax
  401f09:	eb 07                	jmp    401f12 <rio_writen+0x51>
  401f0b:	48 c7 c0 ff ff ff ff 	mov    $0xffffffffffffffff,%rax
  401f12:	48 83 c4 08          	add    $0x8,%rsp
  401f16:	5b                   	pop    %rbx
  401f17:	5d                   	pop    %rbp
  401f18:	41 5c                	pop    %r12
  401f1a:	41 5d                	pop    %r13
  401f1c:	c3                   	retq   

0000000000401f1d <rio_read>:
  401f1d:	41 56                	push   %r14
  401f1f:	41 55                	push   %r13
  401f21:	41 54                	push   %r12
  401f23:	55                   	push   %rbp
  401f24:	53                   	push   %rbx
  401f25:	48 89 fb             	mov    %rdi,%rbx
  401f28:	49 89 f6             	mov    %rsi,%r14
  401f2b:	49 89 d5             	mov    %rdx,%r13
  401f2e:	4c 8d 67 10          	lea    0x10(%rdi),%r12
  401f32:	eb 2a                	jmp    401f5e <rio_read+0x41>
  401f34:	ba 00 20 00 00       	mov    $0x2000,%edx
  401f39:	4c 89 e6             	mov    %r12,%rsi
  401f3c:	8b 3b                	mov    (%rbx),%edi
  401f3e:	e8 0d ed ff ff       	callq  400c50 <read@plt>
  401f43:	89 43 04             	mov    %eax,0x4(%rbx)
  401f46:	85 c0                	test   %eax,%eax
  401f48:	79 0c                	jns    401f56 <rio_read+0x39>
  401f4a:	e8 51 ec ff ff       	callq  400ba0 <__errno_location@plt>
  401f4f:	83 38 04             	cmpl   $0x4,(%rax)
  401f52:	74 0a                	je     401f5e <rio_read+0x41>
  401f54:	eb 37                	jmp    401f8d <rio_read+0x70>
  401f56:	85 c0                	test   %eax,%eax
  401f58:	74 3c                	je     401f96 <rio_read+0x79>
  401f5a:	4c 89 63 08          	mov    %r12,0x8(%rbx)
  401f5e:	8b 6b 04             	mov    0x4(%rbx),%ebp
  401f61:	85 ed                	test   %ebp,%ebp
  401f63:	7e cf                	jle    401f34 <rio_read+0x17>
  401f65:	89 e8                	mov    %ebp,%eax
  401f67:	4c 39 e8             	cmp    %r13,%rax
  401f6a:	72 03                	jb     401f6f <rio_read+0x52>
  401f6c:	44 89 ed             	mov    %r13d,%ebp
  401f6f:	4c 63 e5             	movslq %ebp,%r12
  401f72:	48 8b 73 08          	mov    0x8(%rbx),%rsi
  401f76:	4c 89 e2             	mov    %r12,%rdx
  401f79:	4c 89 f7             	mov    %r14,%rdi
  401f7c:	e8 2f ed ff ff       	callq  400cb0 <memcpy@plt>
  401f81:	4c 01 63 08          	add    %r12,0x8(%rbx)
  401f85:	29 6b 04             	sub    %ebp,0x4(%rbx)
  401f88:	4c 89 e0             	mov    %r12,%rax
  401f8b:	eb 0e                	jmp    401f9b <rio_read+0x7e>
  401f8d:	48 c7 c0 ff ff ff ff 	mov    $0xffffffffffffffff,%rax
  401f94:	eb 05                	jmp    401f9b <rio_read+0x7e>
  401f96:	b8 00 00 00 00       	mov    $0x0,%eax
  401f9b:	5b                   	pop    %rbx
  401f9c:	5d                   	pop    %rbp
  401f9d:	41 5c                	pop    %r12
  401f9f:	41 5d                	pop    %r13
  401fa1:	41 5e                	pop    %r14
  401fa3:	c3                   	retq   

0000000000401fa4 <rio_readlineb>:
  401fa4:	41 55                	push   %r13
  401fa6:	41 54                	push   %r12
  401fa8:	55                   	push   %rbp
  401fa9:	53                   	push   %rbx
  401faa:	48 83 ec 18          	sub    $0x18,%rsp
  401fae:	49 89 fd             	mov    %rdi,%r13
  401fb1:	48 89 f5             	mov    %rsi,%rbp
  401fb4:	49 89 d4             	mov    %rdx,%r12
  401fb7:	bb 01 00 00 00       	mov    $0x1,%ebx
  401fbc:	eb 3d                	jmp    401ffb <rio_readlineb+0x57>
  401fbe:	ba 01 00 00 00       	mov    $0x1,%edx
  401fc3:	48 8d 74 24 0f       	lea    0xf(%rsp),%rsi
  401fc8:	4c 89 ef             	mov    %r13,%rdi
  401fcb:	e8 4d ff ff ff       	callq  401f1d <rio_read>
  401fd0:	83 f8 01             	cmp    $0x1,%eax
  401fd3:	75 12                	jne    401fe7 <rio_readlineb+0x43>
  401fd5:	48 8d 55 01          	lea    0x1(%rbp),%rdx
  401fd9:	0f b6 44 24 0f       	movzbl 0xf(%rsp),%eax
  401fde:	88 45 00             	mov    %al,0x0(%rbp)
  401fe1:	3c 0a                	cmp    $0xa,%al
  401fe3:	75 0f                	jne    401ff4 <rio_readlineb+0x50>
  401fe5:	eb 1b                	jmp    402002 <rio_readlineb+0x5e>
  401fe7:	85 c0                	test   %eax,%eax
  401fe9:	75 23                	jne    40200e <rio_readlineb+0x6a>
  401feb:	48 83 fb 01          	cmp    $0x1,%rbx
  401fef:	90                   	nop
  401ff0:	75 13                	jne    402005 <rio_readlineb+0x61>
  401ff2:	eb 23                	jmp    402017 <rio_readlineb+0x73>
  401ff4:	48 83 c3 01          	add    $0x1,%rbx
  401ff8:	48 89 d5             	mov    %rdx,%rbp
  401ffb:	4c 39 e3             	cmp    %r12,%rbx
  401ffe:	72 be                	jb     401fbe <rio_readlineb+0x1a>
  402000:	eb 03                	jmp    402005 <rio_readlineb+0x61>
  402002:	48 89 d5             	mov    %rdx,%rbp
  402005:	c6 45 00 00          	movb   $0x0,0x0(%rbp)
  402009:	48 89 d8             	mov    %rbx,%rax
  40200c:	eb 0e                	jmp    40201c <rio_readlineb+0x78>
  40200e:	48 c7 c0 ff ff ff ff 	mov    $0xffffffffffffffff,%rax
  402015:	eb 05                	jmp    40201c <rio_readlineb+0x78>
  402017:	b8 00 00 00 00       	mov    $0x0,%eax
  40201c:	48 83 c4 18          	add    $0x18,%rsp
  402020:	5b                   	pop    %rbx
  402021:	5d                   	pop    %rbp
  402022:	41 5c                	pop    %r12
  402024:	41 5d                	pop    %r13
  402026:	c3                   	retq   

0000000000402027 <submitr>:
  402027:	41 57                	push   %r15
  402029:	41 56                	push   %r14
  40202b:	41 55                	push   %r13
  40202d:	41 54                	push   %r12
  40202f:	55                   	push   %rbp
  402030:	53                   	push   %rbx
  402031:	48 81 ec 48 a0 00 00 	sub    $0xa048,%rsp
  402038:	49 89 fc             	mov    %rdi,%r12
  40203b:	89 74 24 04          	mov    %esi,0x4(%rsp)
  40203f:	49 89 d7             	mov    %rdx,%r15
  402042:	49 89 ce             	mov    %rcx,%r14
  402045:	4c 89 44 24 08       	mov    %r8,0x8(%rsp)
  40204a:	4d 89 cd             	mov    %r9,%r13
  40204d:	48 8b 9c 24 80 a0 00 	mov    0xa080(%rsp),%rbx
  402054:	00 
  402055:	c7 84 24 1c 20 00 00 	movl   $0x0,0x201c(%rsp)
  40205c:	00 00 00 00 
  402060:	ba 00 00 00 00       	mov    $0x0,%edx
  402065:	be 01 00 00 00       	mov    $0x1,%esi
  40206a:	bf 02 00 00 00       	mov    $0x2,%edi
  40206f:	e8 1c ed ff ff       	callq  400d90 <socket@plt>
  402074:	89 c5                	mov    %eax,%ebp
  402076:	85 c0                	test   %eax,%eax
  402078:	79 4e                	jns    4020c8 <submitr+0xa1>
  40207a:	48 b8 45 72 72 6f 72 	movabs $0x43203a726f727245,%rax
  402081:	3a 20 43 
  402084:	48 89 03             	mov    %rax,(%rbx)
  402087:	48 b8 6c 69 65 6e 74 	movabs $0x6e7520746e65696c,%rax
  40208e:	20 75 6e 
  402091:	48 89 43 08          	mov    %rax,0x8(%rbx)
  402095:	48 b8 61 62 6c 65 20 	movabs $0x206f7420656c6261,%rax
  40209c:	74 6f 20 
  40209f:	48 89 43 10          	mov    %rax,0x10(%rbx)
  4020a3:	48 b8 63 72 65 61 74 	movabs $0x7320657461657263,%rax
  4020aa:	65 20 73 
  4020ad:	48 89 43 18          	mov    %rax,0x18(%rbx)
  4020b1:	c7 43 20 6f 63 6b 65 	movl   $0x656b636f,0x20(%rbx)
  4020b8:	66 c7 43 24 74 00    	movw   $0x74,0x24(%rbx)
  4020be:	b8 ff ff ff ff       	mov    $0xffffffff,%eax
  4020c3:	e9 68 06 00 00       	jmpq   402730 <submitr+0x709>
  4020c8:	4c 89 e7             	mov    %r12,%rdi
  4020cb:	e8 b0 eb ff ff       	callq  400c80 <gethostbyname@plt>
  4020d0:	48 85 c0             	test   %rax,%rax
  4020d3:	75 67                	jne    40213c <submitr+0x115>
  4020d5:	48 b8 45 72 72 6f 72 	movabs $0x44203a726f727245,%rax
  4020dc:	3a 20 44 
  4020df:	48 89 03             	mov    %rax,(%rbx)
  4020e2:	48 b8 4e 53 20 69 73 	movabs $0x6e7520736920534e,%rax
  4020e9:	20 75 6e 
  4020ec:	48 89 43 08          	mov    %rax,0x8(%rbx)
  4020f0:	48 b8 61 62 6c 65 20 	movabs $0x206f7420656c6261,%rax
  4020f7:	74 6f 20 
  4020fa:	48 89 43 10          	mov    %rax,0x10(%rbx)
  4020fe:	48 b8 72 65 73 6f 6c 	movabs $0x2065766c6f736572,%rax
  402105:	76 65 20 
  402108:	48 89 43 18          	mov    %rax,0x18(%rbx)
  40210c:	48 b8 73 65 72 76 65 	movabs $0x6120726576726573,%rax
  402113:	72 20 61 
  402116:	48 89 43 20          	mov    %rax,0x20(%rbx)
  40211a:	c7 43 28 64 64 72 65 	movl   $0x65726464,0x28(%rbx)
  402121:	66 c7 43 2c 73 73    	movw   $0x7373,0x2c(%rbx)
  402127:	c6 43 2e 00          	movb   $0x0,0x2e(%rbx)
  40212b:	89 ef                	mov    %ebp,%edi
  40212d:	e8 0e eb ff ff       	callq  400c40 <close@plt>
  402132:	b8 ff ff ff ff       	mov    $0xffffffff,%eax
  402137:	e9 f4 05 00 00       	jmpq   402730 <submitr+0x709>
  40213c:	48 c7 84 24 30 a0 00 	movq   $0x0,0xa030(%rsp)
  402143:	00 00 00 00 00 
  402148:	48 c7 84 24 38 a0 00 	movq   $0x0,0xa038(%rsp)
  40214f:	00 00 00 00 00 
  402154:	66 c7 84 24 30 a0 00 	movw   $0x2,0xa030(%rsp)
  40215b:	00 02 00 
  40215e:	48 8b 48 18          	mov    0x18(%rax),%rcx
  402162:	48 63 50 14          	movslq 0x14(%rax),%rdx
  402166:	48 8d b4 24 34 a0 00 	lea    0xa034(%rsp),%rsi
  40216d:	00 
  40216e:	48 8b 39             	mov    (%rcx),%rdi
  402171:	e8 9a eb ff ff       	callq  400d10 <bcopy@plt>
  402176:	0f b7 44 24 04       	movzwl 0x4(%rsp),%eax
  40217b:	66 c1 c8 08          	ror    $0x8,%ax
  40217f:	66 89 84 24 32 a0 00 	mov    %ax,0xa032(%rsp)
  402186:	00 
  402187:	ba 10 00 00 00       	mov    $0x10,%edx
  40218c:	48 8d b4 24 30 a0 00 	lea    0xa030(%rsp),%rsi
  402193:	00 
  402194:	89 ef                	mov    %ebp,%edi
  402196:	e8 e5 eb ff ff       	callq  400d80 <connect@plt>
  40219b:	85 c0                	test   %eax,%eax
  40219d:	79 59                	jns    4021f8 <submitr+0x1d1>
  40219f:	48 b8 45 72 72 6f 72 	movabs $0x55203a726f727245,%rax
  4021a6:	3a 20 55 
  4021a9:	48 89 03             	mov    %rax,(%rbx)
  4021ac:	48 b8 6e 61 62 6c 65 	movabs $0x6f7420656c62616e,%rax
  4021b3:	20 74 6f 
  4021b6:	48 89 43 08          	mov    %rax,0x8(%rbx)
  4021ba:	48 b8 20 63 6f 6e 6e 	movabs $0x7463656e6e6f6320,%rax
  4021c1:	65 63 74 
  4021c4:	48 89 43 10          	mov    %rax,0x10(%rbx)
  4021c8:	48 b8 20 74 6f 20 74 	movabs $0x20656874206f7420,%rax
  4021cf:	68 65 20 
  4021d2:	48 89 43 18          	mov    %rax,0x18(%rbx)
  4021d6:	c7 43 20 73 65 72 76 	movl   $0x76726573,0x20(%rbx)
  4021dd:	66 c7 43 24 65 72    	movw   $0x7265,0x24(%rbx)
  4021e3:	c6 43 26 00          	movb   $0x0,0x26(%rbx)
  4021e7:	89 ef                	mov    %ebp,%edi
  4021e9:	e8 52 ea ff ff       	callq  400c40 <close@plt>
  4021ee:	b8 ff ff ff ff       	mov    $0xffffffff,%eax
  4021f3:	e9 38 05 00 00       	jmpq   402730 <submitr+0x709>
  4021f8:	48 c7 c2 ff ff ff ff 	mov    $0xffffffffffffffff,%rdx
  4021ff:	4c 89 ef             	mov    %r13,%rdi
  402202:	b8 00 00 00 00       	mov    $0x0,%eax
  402207:	48 89 d1             	mov    %rdx,%rcx
  40220a:	f2 ae                	repnz scas %es:(%rdi),%al
  40220c:	48 f7 d1             	not    %rcx
  40220f:	48 89 ce             	mov    %rcx,%rsi
  402212:	4c 89 ff             	mov    %r15,%rdi
  402215:	48 89 d1             	mov    %rdx,%rcx
  402218:	f2 ae                	repnz scas %es:(%rdi),%al
  40221a:	48 f7 d1             	not    %rcx
  40221d:	49 89 c8             	mov    %rcx,%r8
  402220:	4c 89 f7             	mov    %r14,%rdi
  402223:	48 89 d1             	mov    %rdx,%rcx
  402226:	f2 ae                	repnz scas %es:(%rdi),%al
  402228:	49 29 c8             	sub    %rcx,%r8
  40222b:	48 8b 7c 24 08       	mov    0x8(%rsp),%rdi
  402230:	48 89 d1             	mov    %rdx,%rcx
  402233:	f2 ae                	repnz scas %es:(%rdi),%al
  402235:	49 29 c8             	sub    %rcx,%r8
  402238:	48 8d 44 76 fd       	lea    -0x3(%rsi,%rsi,2),%rax
  40223d:	49 8d 44 00 7b       	lea    0x7b(%r8,%rax,1),%rax
  402242:	48 3d 00 20 00 00    	cmp    $0x2000,%rax
  402248:	76 72                	jbe    4022bc <submitr+0x295>
  40224a:	48 b8 45 72 72 6f 72 	movabs $0x52203a726f727245,%rax
  402251:	3a 20 52 
  402254:	48 89 03             	mov    %rax,(%rbx)
  402257:	48 b8 65 73 75 6c 74 	movabs $0x747320746c757365,%rax
  40225e:	20 73 74 
  402261:	48 89 43 08          	mov    %rax,0x8(%rbx)
  402265:	48 b8 72 69 6e 67 20 	movabs $0x6f6f7420676e6972,%rax
  40226c:	74 6f 6f 
  40226f:	48 89 43 10          	mov    %rax,0x10(%rbx)
  402273:	48 b8 20 6c 61 72 67 	movabs $0x202e656772616c20,%rax
  40227a:	65 2e 20 
  40227d:	48 89 43 18          	mov    %rax,0x18(%rbx)
  402281:	48 b8 49 6e 63 72 65 	movabs $0x6573616572636e49,%rax
  402288:	61 73 65 
  40228b:	48 89 43 20          	mov    %rax,0x20(%rbx)
  40228f:	48 b8 20 53 55 42 4d 	movabs $0x5254494d42555320,%rax
  402296:	49 54 52 
  402299:	48 89 43 28          	mov    %rax,0x28(%rbx)
  40229d:	48 b8 5f 4d 41 58 42 	movabs $0x46554258414d5f,%rax
  4022a4:	55 46 00 
  4022a7:	48 89 43 30          	mov    %rax,0x30(%rbx)
  4022ab:	89 ef                	mov    %ebp,%edi
  4022ad:	e8 8e e9 ff ff       	callq  400c40 <close@plt>
  4022b2:	b8 ff ff ff ff       	mov    $0xffffffff,%eax
  4022b7:	e9 74 04 00 00       	jmpq   402730 <submitr+0x709>
  4022bc:	48 8d b4 24 20 40 00 	lea    0x4020(%rsp),%rsi
  4022c3:	00 
  4022c4:	b9 00 04 00 00       	mov    $0x400,%ecx
  4022c9:	b8 00 00 00 00       	mov    $0x0,%eax
  4022ce:	48 89 f7             	mov    %rsi,%rdi
  4022d1:	f3 48 ab             	rep stos %rax,%es:(%rdi)
  4022d4:	4c 89 ef             	mov    %r13,%rdi
  4022d7:	e8 0f fb ff ff       	callq  401deb <urlencode>
  4022dc:	85 c0                	test   %eax,%eax
  4022de:	0f 89 8a 00 00 00    	jns    40236e <submitr+0x347>
  4022e4:	48 b8 45 72 72 6f 72 	movabs $0x52203a726f727245,%rax
  4022eb:	3a 20 52 
  4022ee:	48 89 03             	mov    %rax,(%rbx)
  4022f1:	48 b8 65 73 75 6c 74 	movabs $0x747320746c757365,%rax
  4022f8:	20 73 74 
  4022fb:	48 89 43 08          	mov    %rax,0x8(%rbx)
  4022ff:	48 b8 72 69 6e 67 20 	movabs $0x6e6f6320676e6972,%rax
  402306:	63 6f 6e 
  402309:	48 89 43 10          	mov    %rax,0x10(%rbx)
  40230d:	48 b8 74 61 69 6e 73 	movabs $0x6e6120736e696174,%rax
  402314:	20 61 6e 
  402317:	48 89 43 18          	mov    %rax,0x18(%rbx)
  40231b:	48 b8 20 69 6c 6c 65 	movabs $0x6c6167656c6c6920,%rax
  402322:	67 61 6c 
  402325:	48 89 43 20          	mov    %rax,0x20(%rbx)
  402329:	48 b8 20 6f 72 20 75 	movabs $0x72706e7520726f20,%rax
  402330:	6e 70 72 
  402333:	48 89 43 28          	mov    %rax,0x28(%rbx)
  402337:	48 b8 69 6e 74 61 62 	movabs $0x20656c6261746e69,%rax
  40233e:	6c 65 20 
  402341:	48 89 43 30          	mov    %rax,0x30(%rbx)
  402345:	48 b8 63 68 61 72 61 	movabs $0x6574636172616863,%rax
  40234c:	63 74 65 
  40234f:	48 89 43 38          	mov    %rax,0x38(%rbx)
  402353:	66 c7 43 40 72 2e    	movw   $0x2e72,0x40(%rbx)
  402359:	c6 43 42 00          	movb   $0x0,0x42(%rbx)
  40235d:	89 ef                	mov    %ebp,%edi
  40235f:	e8 dc e8 ff ff       	callq  400c40 <close@plt>
  402364:	b8 ff ff ff ff       	mov    $0xffffffff,%eax
  402369:	e9 c2 03 00 00       	jmpq   402730 <submitr+0x709>
  40236e:	4d 89 e1             	mov    %r12,%r9
  402371:	4c 8d 84 24 20 40 00 	lea    0x4020(%rsp),%r8
  402378:	00 
  402379:	4c 89 f9             	mov    %r15,%rcx
  40237c:	4c 89 f2             	mov    %r14,%rdx
  40237f:	be b8 31 40 00       	mov    $0x4031b8,%esi
  402384:	48 8d bc 24 20 60 00 	lea    0x6020(%rsp),%rdi
  40238b:	00 
  40238c:	b8 00 00 00 00       	mov    $0x0,%eax
  402391:	e8 ca e9 ff ff       	callq  400d60 <sprintf@plt>
  402396:	48 8d bc 24 20 60 00 	lea    0x6020(%rsp),%rdi
  40239d:	00 
  40239e:	b8 00 00 00 00       	mov    $0x0,%eax
  4023a3:	48 c7 c1 ff ff ff ff 	mov    $0xffffffffffffffff,%rcx
  4023aa:	f2 ae                	repnz scas %es:(%rdi),%al
  4023ac:	48 f7 d1             	not    %rcx
  4023af:	48 8d 51 ff          	lea    -0x1(%rcx),%rdx
  4023b3:	48 8d b4 24 20 60 00 	lea    0x6020(%rsp),%rsi
  4023ba:	00 
  4023bb:	89 ef                	mov    %ebp,%edi
  4023bd:	e8 ff fa ff ff       	callq  401ec1 <rio_writen>
  4023c2:	48 85 c0             	test   %rax,%rax
  4023c5:	79 6e                	jns    402435 <submitr+0x40e>
  4023c7:	48 b8 45 72 72 6f 72 	movabs $0x43203a726f727245,%rax
  4023ce:	3a 20 43 
  4023d1:	48 89 03             	mov    %rax,(%rbx)
  4023d4:	48 b8 6c 69 65 6e 74 	movabs $0x6e7520746e65696c,%rax
  4023db:	20 75 6e 
  4023de:	48 89 43 08          	mov    %rax,0x8(%rbx)
  4023e2:	48 b8 61 62 6c 65 20 	movabs $0x206f7420656c6261,%rax
  4023e9:	74 6f 20 
  4023ec:	48 89 43 10          	mov    %rax,0x10(%rbx)
  4023f0:	48 b8 77 72 69 74 65 	movabs $0x6f74206574697277,%rax
  4023f7:	20 74 6f 
  4023fa:	48 89 43 18          	mov    %rax,0x18(%rbx)
  4023fe:	48 b8 20 74 68 65 20 	movabs $0x7365722065687420,%rax
  402405:	72 65 73 
  402408:	48 89 43 20          	mov    %rax,0x20(%rbx)
  40240c:	48 b8 75 6c 74 20 73 	movabs $0x7672657320746c75,%rax
  402413:	65 72 76 
  402416:	48 89 43 28          	mov    %rax,0x28(%rbx)
  40241a:	66 c7 43 30 65 72    	movw   $0x7265,0x30(%rbx)
  402420:	c6 43 32 00          	movb   $0x0,0x32(%rbx)
  402424:	89 ef                	mov    %ebp,%edi
  402426:	e8 15 e8 ff ff       	callq  400c40 <close@plt>
  40242b:	b8 ff ff ff ff       	mov    $0xffffffff,%eax
  402430:	e9 fb 02 00 00       	jmpq   402730 <submitr+0x709>
  402435:	89 ee                	mov    %ebp,%esi
  402437:	48 8d bc 24 20 80 00 	lea    0x8020(%rsp),%rdi
  40243e:	00 
  40243f:	e8 6c f9 ff ff       	callq  401db0 <rio_readinitb>
  402444:	ba 00 20 00 00       	mov    $0x2000,%edx
  402449:	48 8d b4 24 20 60 00 	lea    0x6020(%rsp),%rsi
  402450:	00 
  402451:	48 8d bc 24 20 80 00 	lea    0x8020(%rsp),%rdi
  402458:	00 
  402459:	e8 46 fb ff ff       	callq  401fa4 <rio_readlineb>
  40245e:	48 85 c0             	test   %rax,%rax
  402461:	7f 7d                	jg     4024e0 <submitr+0x4b9>
  402463:	48 b8 45 72 72 6f 72 	movabs $0x43203a726f727245,%rax
  40246a:	3a 20 43 
  40246d:	48 89 03             	mov    %rax,(%rbx)
  402470:	48 b8 6c 69 65 6e 74 	movabs $0x6e7520746e65696c,%rax
  402477:	20 75 6e 
  40247a:	48 89 43 08          	mov    %rax,0x8(%rbx)
  40247e:	48 b8 61 62 6c 65 20 	movabs $0x206f7420656c6261,%rax
  402485:	74 6f 20 
  402488:	48 89 43 10          	mov    %rax,0x10(%rbx)
  40248c:	48 b8 72 65 61 64 20 	movabs $0x7269662064616572,%rax
  402493:	66 69 72 
  402496:	48 89 43 18          	mov    %rax,0x18(%rbx)
  40249a:	48 b8 73 74 20 68 65 	movabs $0x6564616568207473,%rax
  4024a1:	61 64 65 
  4024a4:	48 89 43 20          	mov    %rax,0x20(%rbx)
  4024a8:	48 b8 72 20 66 72 6f 	movabs $0x72206d6f72662072,%rax
  4024af:	6d 20 72 
  4024b2:	48 89 43 28          	mov    %rax,0x28(%rbx)
  4024b6:	48 b8 65 73 75 6c 74 	movabs $0x657320746c757365,%rax
  4024bd:	20 73 65 
  4024c0:	48 89 43 30          	mov    %rax,0x30(%rbx)
  4024c4:	c7 43 38 72 76 65 72 	movl   $0x72657672,0x38(%rbx)
  4024cb:	c6 43 3c 00          	movb   $0x0,0x3c(%rbx)
  4024cf:	89 ef                	mov    %ebp,%edi
  4024d1:	e8 6a e7 ff ff       	callq  400c40 <close@plt>
  4024d6:	b8 ff ff ff ff       	mov    $0xffffffff,%eax
  4024db:	e9 50 02 00 00       	jmpq   402730 <submitr+0x709>
  4024e0:	4c 8d 44 24 10       	lea    0x10(%rsp),%r8
  4024e5:	48 8d 8c 24 1c 20 00 	lea    0x201c(%rsp),%rcx
  4024ec:	00 
  4024ed:	48 8d 94 24 20 20 00 	lea    0x2020(%rsp),%rdx
  4024f4:	00 
  4024f5:	be 2f 32 40 00       	mov    $0x40322f,%esi
  4024fa:	48 8d bc 24 20 60 00 	lea    0x6020(%rsp),%rdi
  402501:	00 
  402502:	b8 00 00 00 00       	mov    $0x0,%eax
  402507:	e8 e4 e7 ff ff       	callq  400cf0 <__isoc99_sscanf@plt>
  40250c:	e9 98 00 00 00       	jmpq   4025a9 <submitr+0x582>
  402511:	ba 00 20 00 00       	mov    $0x2000,%edx
  402516:	48 8d b4 24 20 60 00 	lea    0x6020(%rsp),%rsi
  40251d:	00 
  40251e:	48 8d bc 24 20 80 00 	lea    0x8020(%rsp),%rdi
  402525:	00 
  402526:	e8 79 fa ff ff       	callq  401fa4 <rio_readlineb>
  40252b:	48 85 c0             	test   %rax,%rax
  40252e:	7f 79                	jg     4025a9 <submitr+0x582>
  402530:	48 b8 45 72 72 6f 72 	movabs $0x43203a726f727245,%rax
  402537:	3a 20 43 
  40253a:	48 89 03             	mov    %rax,(%rbx)
  40253d:	48 b8 6c 69 65 6e 74 	movabs $0x6e7520746e65696c,%rax
  402544:	20 75 6e 
  402547:	48 89 43 08          	mov    %rax,0x8(%rbx)
  40254b:	48 b8 61 62 6c 65 20 	movabs $0x206f7420656c6261,%rax
  402552:	74 6f 20 
  402555:	48 89 43 10          	mov    %rax,0x10(%rbx)
  402559:	48 b8 72 65 61 64 20 	movabs $0x6165682064616572,%rax
  402560:	68 65 61 
  402563:	48 89 43 18          	mov    %rax,0x18(%rbx)
  402567:	48 b8 64 65 72 73 20 	movabs $0x6f72662073726564,%rax
  40256e:	66 72 6f 
  402571:	48 89 43 20          	mov    %rax,0x20(%rbx)
  402575:	48 b8 6d 20 74 68 65 	movabs $0x657220656874206d,%rax
  40257c:	20 72 65 
  40257f:	48 89 43 28          	mov    %rax,0x28(%rbx)
  402583:	48 b8 73 75 6c 74 20 	movabs $0x72657320746c7573,%rax
  40258a:	73 65 72 
  40258d:	48 89 43 30          	mov    %rax,0x30(%rbx)
  402591:	c7 43 38 76 65 72 00 	movl   $0x726576,0x38(%rbx)
  402598:	89 ef                	mov    %ebp,%edi
  40259a:	e8 a1 e6 ff ff       	callq  400c40 <close@plt>
  40259f:	b8 ff ff ff ff       	mov    $0xffffffff,%eax
  4025a4:	e9 87 01 00 00       	jmpq   402730 <submitr+0x709>
  4025a9:	0f b6 84 24 20 60 00 	movzbl 0x6020(%rsp),%eax
  4025b0:	00 
  4025b1:	83 e8 0d             	sub    $0xd,%eax
  4025b4:	75 15                	jne    4025cb <submitr+0x5a4>
  4025b6:	0f b6 84 24 21 60 00 	movzbl 0x6021(%rsp),%eax
  4025bd:	00 
  4025be:	83 e8 0a             	sub    $0xa,%eax
  4025c1:	75 08                	jne    4025cb <submitr+0x5a4>
  4025c3:	0f b6 84 24 22 60 00 	movzbl 0x6022(%rsp),%eax
  4025ca:	00 
  4025cb:	85 c0                	test   %eax,%eax
  4025cd:	0f 85 3e ff ff ff    	jne    402511 <submitr+0x4ea>
  4025d3:	ba 00 20 00 00       	mov    $0x2000,%edx
  4025d8:	48 8d b4 24 20 60 00 	lea    0x6020(%rsp),%rsi
  4025df:	00 
  4025e0:	48 8d bc 24 20 80 00 	lea    0x8020(%rsp),%rdi
  4025e7:	00 
  4025e8:	e8 b7 f9 ff ff       	callq  401fa4 <rio_readlineb>
  4025ed:	48 85 c0             	test   %rax,%rax
  4025f0:	0f 8f 83 00 00 00    	jg     402679 <submitr+0x652>
  4025f6:	48 b8 45 72 72 6f 72 	movabs $0x43203a726f727245,%rax
  4025fd:	3a 20 43 
  402600:	48 89 03             	mov    %rax,(%rbx)
  402603:	48 b8 6c 69 65 6e 74 	movabs $0x6e7520746e65696c,%rax
  40260a:	20 75 6e 
  40260d:	48 89 43 08          	mov    %rax,0x8(%rbx)
  402611:	48 b8 61 62 6c 65 20 	movabs $0x206f7420656c6261,%rax
  402618:	74 6f 20 
  40261b:	48 89 43 10          	mov    %rax,0x10(%rbx)
  40261f:	48 b8 72 65 61 64 20 	movabs $0x6174732064616572,%rax
  402626:	73 74 61 
  402629:	48 89 43 18          	mov    %rax,0x18(%rbx)
  40262d:	48 b8 74 75 73 20 6d 	movabs $0x7373656d20737574,%rax
  402634:	65 73 73 
  402637:	48 89 43 20          	mov    %rax,0x20(%rbx)
  40263b:	48 b8 61 67 65 20 66 	movabs $0x6d6f726620656761,%rax
  402642:	72 6f 6d 
  402645:	48 89 43 28          	mov    %rax,0x28(%rbx)
  402649:	48 b8 20 72 65 73 75 	movabs $0x20746c7573657220,%rax
  402650:	6c 74 20 
  402653:	48 89 43 30          	mov    %rax,0x30(%rbx)
  402657:	c7 43 38 73 65 72 76 	movl   $0x76726573,0x38(%rbx)
  40265e:	66 c7 43 3c 65 72    	movw   $0x7265,0x3c(%rbx)
  402664:	c6 43 3e 00          	movb   $0x0,0x3e(%rbx)
  402668:	89 ef                	mov    %ebp,%edi
  40266a:	e8 d1 e5 ff ff       	callq  400c40 <close@plt>
  40266f:	b8 ff ff ff ff       	mov    $0xffffffff,%eax
  402674:	e9 b7 00 00 00       	jmpq   402730 <submitr+0x709>
  402679:	8b 94 24 1c 20 00 00 	mov    0x201c(%rsp),%edx
  402680:	81 fa c8 00 00 00    	cmp    $0xc8,%edx
  402686:	74 28                	je     4026b0 <submitr+0x689>
  402688:	48 8d 4c 24 10       	lea    0x10(%rsp),%rcx
  40268d:	be f8 31 40 00       	mov    $0x4031f8,%esi
  402692:	48 89 df             	mov    %rbx,%rdi
  402695:	b8 00 00 00 00       	mov    $0x0,%eax
  40269a:	e8 c1 e6 ff ff       	callq  400d60 <sprintf@plt>
  40269f:	89 ef                	mov    %ebp,%edi
  4026a1:	e8 9a e5 ff ff       	callq  400c40 <close@plt>
  4026a6:	b8 ff ff ff ff       	mov    $0xffffffff,%eax
  4026ab:	e9 80 00 00 00       	jmpq   402730 <submitr+0x709>
  4026b0:	48 8d b4 24 20 60 00 	lea    0x6020(%rsp),%rsi
  4026b7:	00 
  4026b8:	48 89 df             	mov    %rbx,%rdi
  4026bb:	e8 10 e5 ff ff       	callq  400bd0 <strcpy@plt>
  4026c0:	89 ef                	mov    %ebp,%edi
  4026c2:	e8 79 e5 ff ff       	callq  400c40 <close@plt>
  4026c7:	0f b6 03             	movzbl (%rbx),%eax
  4026ca:	83 e8 4f             	sub    $0x4f,%eax
  4026cd:	75 18                	jne    4026e7 <submitr+0x6c0>
  4026cf:	0f b6 53 01          	movzbl 0x1(%rbx),%edx
  4026d3:	83 ea 4b             	sub    $0x4b,%edx
  4026d6:	75 11                	jne    4026e9 <submitr+0x6c2>
  4026d8:	0f b6 53 02          	movzbl 0x2(%rbx),%edx
  4026dc:	83 ea 0a             	sub    $0xa,%edx
  4026df:	75 08                	jne    4026e9 <submitr+0x6c2>
  4026e1:	0f b6 53 03          	movzbl 0x3(%rbx),%edx
  4026e5:	eb 02                	jmp    4026e9 <submitr+0x6c2>
  4026e7:	89 c2                	mov    %eax,%edx
  4026e9:	85 d2                	test   %edx,%edx
  4026eb:	74 30                	je     40271d <submitr+0x6f6>
  4026ed:	bf 40 32 40 00       	mov    $0x403240,%edi
  4026f2:	b9 05 00 00 00       	mov    $0x5,%ecx
  4026f7:	48 89 de             	mov    %rbx,%rsi
  4026fa:	f3 a6                	repz cmpsb %es:(%rdi),%ds:(%rsi)
  4026fc:	0f 97 c1             	seta   %cl
  4026ff:	0f 92 c2             	setb   %dl
  402702:	38 d1                	cmp    %dl,%cl
  402704:	74 1e                	je     402724 <submitr+0x6fd>
  402706:	85 c0                	test   %eax,%eax
  402708:	75 0d                	jne    402717 <submitr+0x6f0>
  40270a:	0f b6 43 01          	movzbl 0x1(%rbx),%eax
  40270e:	83 e8 4b             	sub    $0x4b,%eax
  402711:	75 04                	jne    402717 <submitr+0x6f0>
  402713:	0f b6 43 02          	movzbl 0x2(%rbx),%eax
  402717:	85 c0                	test   %eax,%eax
  402719:	75 10                	jne    40272b <submitr+0x704>
  40271b:	eb 13                	jmp    402730 <submitr+0x709>
  40271d:	b8 00 00 00 00       	mov    $0x0,%eax
  402722:	eb 0c                	jmp    402730 <submitr+0x709>
  402724:	b8 00 00 00 00       	mov    $0x0,%eax
  402729:	eb 05                	jmp    402730 <submitr+0x709>
  40272b:	b8 ff ff ff ff       	mov    $0xffffffff,%eax
  402730:	48 81 c4 48 a0 00 00 	add    $0xa048,%rsp
  402737:	5b                   	pop    %rbx
  402738:	5d                   	pop    %rbp
  402739:	41 5c                	pop    %r12
  40273b:	41 5d                	pop    %r13
  40273d:	41 5e                	pop    %r14
  40273f:	41 5f                	pop    %r15
  402741:	c3                   	retq   

0000000000402742 <init_timeout>:
  402742:	53                   	push   %rbx
  402743:	89 fb                	mov    %edi,%ebx
  402745:	85 ff                	test   %edi,%edi
  402747:	74 1f                	je     402768 <init_timeout+0x26>
  402749:	85 ff                	test   %edi,%edi
  40274b:	79 05                	jns    402752 <init_timeout+0x10>
  40274d:	bb 00 00 00 00       	mov    $0x0,%ebx
  402752:	be c2 1d 40 00       	mov    $0x401dc2,%esi
  402757:	bf 0e 00 00 00       	mov    $0xe,%edi
  40275c:	e8 0f e5 ff ff       	callq  400c70 <signal@plt>
  402761:	89 df                	mov    %ebx,%edi
  402763:	e8 c8 e4 ff ff       	callq  400c30 <alarm@plt>
  402768:	5b                   	pop    %rbx
  402769:	c3                   	retq   

000000000040276a <init_driver>:
  40276a:	55                   	push   %rbp
  40276b:	53                   	push   %rbx
  40276c:	48 83 ec 18          	sub    $0x18,%rsp
  402770:	48 89 fd             	mov    %rdi,%rbp
  402773:	be 01 00 00 00       	mov    $0x1,%esi
  402778:	bf 0d 00 00 00       	mov    $0xd,%edi
  40277d:	e8 ee e4 ff ff       	callq  400c70 <signal@plt>
  402782:	be 01 00 00 00       	mov    $0x1,%esi
  402787:	bf 1d 00 00 00       	mov    $0x1d,%edi
  40278c:	e8 df e4 ff ff       	callq  400c70 <signal@plt>
  402791:	be 01 00 00 00       	mov    $0x1,%esi
  402796:	bf 1d 00 00 00       	mov    $0x1d,%edi
  40279b:	e8 d0 e4 ff ff       	callq  400c70 <signal@plt>
  4027a0:	ba 00 00 00 00       	mov    $0x0,%edx
  4027a5:	be 01 00 00 00       	mov    $0x1,%esi
  4027aa:	bf 02 00 00 00       	mov    $0x2,%edi
  4027af:	e8 dc e5 ff ff       	callq  400d90 <socket@plt>
  4027b4:	89 c3                	mov    %eax,%ebx
  4027b6:	85 c0                	test   %eax,%eax
  4027b8:	79 4f                	jns    402809 <init_driver+0x9f>
  4027ba:	48 b8 45 72 72 6f 72 	movabs $0x43203a726f727245,%rax
  4027c1:	3a 20 43 
  4027c4:	48 89 45 00          	mov    %rax,0x0(%rbp)
  4027c8:	48 b8 6c 69 65 6e 74 	movabs $0x6e7520746e65696c,%rax
  4027cf:	20 75 6e 
  4027d2:	48 89 45 08          	mov    %rax,0x8(%rbp)
  4027d6:	48 b8 61 62 6c 65 20 	movabs $0x206f7420656c6261,%rax
  4027dd:	74 6f 20 
  4027e0:	48 89 45 10          	mov    %rax,0x10(%rbp)
  4027e4:	48 b8 63 72 65 61 74 	movabs $0x7320657461657263,%rax
  4027eb:	65 20 73 
  4027ee:	48 89 45 18          	mov    %rax,0x18(%rbp)
  4027f2:	c7 45 20 6f 63 6b 65 	movl   $0x656b636f,0x20(%rbp)
  4027f9:	66 c7 45 24 74 00    	movw   $0x74,0x24(%rbp)
  4027ff:	b8 ff ff ff ff       	mov    $0xffffffff,%eax
  402804:	e9 23 01 00 00       	jmpq   40292c <init_driver+0x1c2>
  402809:	bf 45 32 40 00       	mov    $0x403245,%edi
  40280e:	e8 6d e4 ff ff       	callq  400c80 <gethostbyname@plt>
  402813:	48 85 c0             	test   %rax,%rax
  402816:	75 68                	jne    402880 <init_driver+0x116>
  402818:	48 b8 45 72 72 6f 72 	movabs $0x44203a726f727245,%rax
  40281f:	3a 20 44 
  402822:	48 89 45 00          	mov    %rax,0x0(%rbp)
  402826:	48 b8 4e 53 20 69 73 	movabs $0x6e7520736920534e,%rax
  40282d:	20 75 6e 
  402830:	48 89 45 08          	mov    %rax,0x8(%rbp)
  402834:	48 b8 61 62 6c 65 20 	movabs $0x206f7420656c6261,%rax
  40283b:	74 6f 20 
  40283e:	48 89 45 10          	mov    %rax,0x10(%rbp)
  402842:	48 b8 72 65 73 6f 6c 	movabs $0x2065766c6f736572,%rax
  402849:	76 65 20 
  40284c:	48 89 45 18          	mov    %rax,0x18(%rbp)
  402850:	48 b8 73 65 72 76 65 	movabs $0x6120726576726573,%rax
  402857:	72 20 61 
  40285a:	48 89 45 20          	mov    %rax,0x20(%rbp)
  40285e:	c7 45 28 64 64 72 65 	movl   $0x65726464,0x28(%rbp)
  402865:	66 c7 45 2c 73 73    	movw   $0x7373,0x2c(%rbp)
  40286b:	c6 45 2e 00          	movb   $0x0,0x2e(%rbp)
  40286f:	89 df                	mov    %ebx,%edi
  402871:	e8 ca e3 ff ff       	callq  400c40 <close@plt>
  402876:	b8 ff ff ff ff       	mov    $0xffffffff,%eax
  40287b:	e9 ac 00 00 00       	jmpq   40292c <init_driver+0x1c2>
  402880:	48 c7 04 24 00 00 00 	movq   $0x0,(%rsp)
  402887:	00 
  402888:	48 c7 44 24 08 00 00 	movq   $0x0,0x8(%rsp)
  40288f:	00 00 
  402891:	66 c7 04 24 02 00    	movw   $0x2,(%rsp)
  402897:	48 8b 48 18          	mov    0x18(%rax),%rcx
  40289b:	48 63 50 14          	movslq 0x14(%rax),%rdx
  40289f:	48 8d 74 24 04       	lea    0x4(%rsp),%rsi
  4028a4:	48 8b 39             	mov    (%rcx),%rdi
  4028a7:	e8 64 e4 ff ff       	callq  400d10 <bcopy@plt>
  4028ac:	66 c7 44 24 02 3c 9a 	movw   $0x9a3c,0x2(%rsp)
  4028b3:	ba 10 00 00 00       	mov    $0x10,%edx
  4028b8:	48 89 e6             	mov    %rsp,%rsi
  4028bb:	89 df                	mov    %ebx,%edi
  4028bd:	e8 be e4 ff ff       	callq  400d80 <connect@plt>
  4028c2:	85 c0                	test   %eax,%eax
  4028c4:	79 50                	jns    402916 <init_driver+0x1ac>
  4028c6:	48 b8 45 72 72 6f 72 	movabs $0x55203a726f727245,%rax
  4028cd:	3a 20 55 
  4028d0:	48 89 45 00          	mov    %rax,0x0(%rbp)
  4028d4:	48 b8 6e 61 62 6c 65 	movabs $0x6f7420656c62616e,%rax
  4028db:	20 74 6f 
  4028de:	48 89 45 08          	mov    %rax,0x8(%rbp)
  4028e2:	48 b8 20 63 6f 6e 6e 	movabs $0x7463656e6e6f6320,%rax
  4028e9:	65 63 74 
  4028ec:	48 89 45 10          	mov    %rax,0x10(%rbp)
  4028f0:	48 b8 20 74 6f 20 73 	movabs $0x76726573206f7420,%rax
  4028f7:	65 72 76 
  4028fa:	48 89 45 18          	mov    %rax,0x18(%rbp)
  4028fe:	66 c7 45 20 65 72    	movw   $0x7265,0x20(%rbp)
  402904:	c6 45 22 00          	movb   $0x0,0x22(%rbp)
  402908:	89 df                	mov    %ebx,%edi
  40290a:	e8 31 e3 ff ff       	callq  400c40 <close@plt>
  40290f:	b8 ff ff ff ff       	mov    $0xffffffff,%eax
  402914:	eb 16                	jmp    40292c <init_driver+0x1c2>
  402916:	89 df                	mov    %ebx,%edi
  402918:	e8 23 e3 ff ff       	callq  400c40 <close@plt>
  40291d:	66 c7 45 00 4f 4b    	movw   $0x4b4f,0x0(%rbp)
  402923:	c6 45 02 00          	movb   $0x0,0x2(%rbp)
  402927:	b8 00 00 00 00       	mov    $0x0,%eax
  40292c:	48 83 c4 18          	add    $0x18,%rsp
  402930:	5b                   	pop    %rbx
  402931:	5d                   	pop    %rbp
  402932:	c3                   	retq   

0000000000402933 <driver_post>:
  402933:	53                   	push   %rbx
  402934:	48 83 ec 10          	sub    $0x10,%rsp
  402938:	4c 89 cb             	mov    %r9,%rbx
  40293b:	45 85 c0             	test   %r8d,%r8d
  40293e:	74 22                	je     402962 <driver_post+0x2f>
  402940:	48 89 ce             	mov    %rcx,%rsi
  402943:	bf 51 32 40 00       	mov    $0x403251,%edi
  402948:	b8 00 00 00 00       	mov    $0x0,%eax
  40294d:	e8 be e2 ff ff       	callq  400c10 <printf@plt>
  402952:	66 c7 03 4f 4b       	movw   $0x4b4f,(%rbx)
  402957:	c6 43 02 00          	movb   $0x0,0x2(%rbx)
  40295b:	b8 00 00 00 00       	mov    $0x0,%eax
  402960:	eb 39                	jmp    40299b <driver_post+0x68>
  402962:	48 85 ff             	test   %rdi,%rdi
  402965:	74 26                	je     40298d <driver_post+0x5a>
  402967:	80 3f 00             	cmpb   $0x0,(%rdi)
  40296a:	74 21                	je     40298d <driver_post+0x5a>
  40296c:	4c 89 0c 24          	mov    %r9,(%rsp)
  402970:	49 89 c9             	mov    %rcx,%r9
  402973:	49 89 d0             	mov    %rdx,%r8
  402976:	48 89 f9             	mov    %rdi,%rcx
  402979:	48 89 f2             	mov    %rsi,%rdx
  40297c:	be 9a 3c 00 00       	mov    $0x3c9a,%esi
  402981:	bf 45 32 40 00       	mov    $0x403245,%edi
  402986:	e8 9c f6 ff ff       	callq  402027 <submitr>
  40298b:	eb 0e                	jmp    40299b <driver_post+0x68>
  40298d:	66 c7 03 4f 4b       	movw   $0x4b4f,(%rbx)
  402992:	c6 43 02 00          	movb   $0x0,0x2(%rbx)
  402996:	b8 00 00 00 00       	mov    $0x0,%eax
  40299b:	48 83 c4 10          	add    $0x10,%rsp
  40299f:	5b                   	pop    %rbx
  4029a0:	c3                   	retq   

00000000004029a1 <check>:
  4029a1:	89 f8                	mov    %edi,%eax
  4029a3:	c1 e8 1c             	shr    $0x1c,%eax
  4029a6:	85 c0                	test   %eax,%eax
  4029a8:	74 1d                	je     4029c7 <check+0x26>
  4029aa:	b9 00 00 00 00       	mov    $0x0,%ecx
  4029af:	eb 0b                	jmp    4029bc <check+0x1b>
  4029b1:	89 f8                	mov    %edi,%eax
  4029b3:	d3 e8                	shr    %cl,%eax
  4029b5:	3c 0a                	cmp    $0xa,%al
  4029b7:	74 14                	je     4029cd <check+0x2c>
  4029b9:	83 c1 08             	add    $0x8,%ecx
  4029bc:	83 f9 1f             	cmp    $0x1f,%ecx
  4029bf:	7e f0                	jle    4029b1 <check+0x10>
  4029c1:	b8 01 00 00 00       	mov    $0x1,%eax
  4029c6:	c3                   	retq   
  4029c7:	b8 00 00 00 00       	mov    $0x0,%eax
  4029cc:	c3                   	retq   
  4029cd:	b8 00 00 00 00       	mov    $0x0,%eax
  4029d2:	c3                   	retq   

00000000004029d3 <gencookie>:
  4029d3:	53                   	push   %rbx
  4029d4:	83 c7 01             	add    $0x1,%edi
  4029d7:	e8 d4 e1 ff ff       	callq  400bb0 <srandom@plt>
  4029dc:	e8 ef e2 ff ff       	callq  400cd0 <random@plt>
  4029e1:	89 c3                	mov    %eax,%ebx
  4029e3:	89 c7                	mov    %eax,%edi
  4029e5:	e8 b7 ff ff ff       	callq  4029a1 <check>
  4029ea:	85 c0                	test   %eax,%eax
  4029ec:	74 ee                	je     4029dc <gencookie+0x9>
  4029ee:	89 d8                	mov    %ebx,%eax
  4029f0:	5b                   	pop    %rbx
  4029f1:	c3                   	retq   
  4029f2:	66 2e 0f 1f 84 00 00 	nopw   %cs:0x0(%rax,%rax,1)
  4029f9:	00 00 00 
  4029fc:	0f 1f 40 00          	nopl   0x0(%rax)

0000000000402a00 <__libc_csu_init>:
  402a00:	41 57                	push   %r15
  402a02:	41 89 ff             	mov    %edi,%r15d
  402a05:	41 56                	push   %r14
  402a07:	49 89 f6             	mov    %rsi,%r14
  402a0a:	41 55                	push   %r13
  402a0c:	49 89 d5             	mov    %rdx,%r13
  402a0f:	41 54                	push   %r12
  402a11:	4c 8d 25 f8 13 20 00 	lea    0x2013f8(%rip),%r12        # 603e10 <__frame_dummy_init_array_entry>
  402a18:	55                   	push   %rbp
  402a19:	48 8d 2d f8 13 20 00 	lea    0x2013f8(%rip),%rbp        # 603e18 <__init_array_end>
  402a20:	53                   	push   %rbx
  402a21:	4c 29 e5             	sub    %r12,%rbp
  402a24:	31 db                	xor    %ebx,%ebx
  402a26:	48 c1 fd 03          	sar    $0x3,%rbp
  402a2a:	48 83 ec 08          	sub    $0x8,%rsp
  402a2e:	e8 3d e1 ff ff       	callq  400b70 <_init>
  402a33:	48 85 ed             	test   %rbp,%rbp
  402a36:	74 1e                	je     402a56 <__libc_csu_init+0x56>
  402a38:	0f 1f 84 00 00 00 00 	nopl   0x0(%rax,%rax,1)
  402a3f:	00 
  402a40:	4c 89 ea             	mov    %r13,%rdx
  402a43:	4c 89 f6             	mov    %r14,%rsi
  402a46:	44 89 ff             	mov    %r15d,%edi
  402a49:	41 ff 14 dc          	callq  *(%r12,%rbx,8)
  402a4d:	48 83 c3 01          	add    $0x1,%rbx
  402a51:	48 39 eb             	cmp    %rbp,%rbx
  402a54:	75 ea                	jne    402a40 <__libc_csu_init+0x40>
  402a56:	48 83 c4 08          	add    $0x8,%rsp
  402a5a:	5b                   	pop    %rbx
  402a5b:	5d                   	pop    %rbp
  402a5c:	41 5c                	pop    %r12
  402a5e:	41 5d                	pop    %r13
  402a60:	41 5e                	pop    %r14
  402a62:	41 5f                	pop    %r15
  402a64:	c3                   	retq   
  402a65:	90                   	nop
  402a66:	66 2e 0f 1f 84 00 00 	nopw   %cs:0x0(%rax,%rax,1)
  402a6d:	00 00 00 

0000000000402a70 <__libc_csu_fini>:
  402a70:	f3 c3                	repz retq 

Disassembly of section .fini:

0000000000402a74 <_fini>:
  402a74:	48 83 ec 08          	sub    $0x8,%rsp
  402a78:	48 83 c4 08          	add    $0x8,%rsp
  402a7c:	c3                   	retq   
