
rtarget：     文件格式 elf64-x86-64


Disassembly of section .init:

0000000000400b70 <_init>:
  400b70:	48 83 ec 08          	sub    $0x8,%rsp
  400b74:	48 8b 05 7d 44 20 00 	mov    0x20447d(%rip),%rax        # 604ff8 <__gmon_start__>
  400b7b:	48 85 c0             	test   %rax,%rax
  400b7e:	74 05                	je     400b85 <_init+0x15>
  400b80:	e8 1b 02 00 00       	callq  400da0 <__gmon_start__@plt>
  400b85:	48 83 c4 08          	add    $0x8,%rsp
  400b89:	c3                   	retq   

Disassembly of section .plt:

0000000000400b90 <.plt>:
  400b90:	ff 35 72 44 20 00    	pushq  0x204472(%rip)        # 605008 <_GLOBAL_OFFSET_TABLE_+0x8>
  400b96:	ff 25 74 44 20 00    	jmpq   *0x204474(%rip)        # 605010 <_GLOBAL_OFFSET_TABLE_+0x10>
  400b9c:	0f 1f 40 00          	nopl   0x0(%rax)

0000000000400ba0 <__errno_location@plt>:
  400ba0:	ff 25 72 44 20 00    	jmpq   *0x204472(%rip)        # 605018 <__errno_location@GLIBC_2.2.5>
  400ba6:	68 00 00 00 00       	pushq  $0x0
  400bab:	e9 e0 ff ff ff       	jmpq   400b90 <.plt>

0000000000400bb0 <srandom@plt>:
  400bb0:	ff 25 6a 44 20 00    	jmpq   *0x20446a(%rip)        # 605020 <srandom@GLIBC_2.2.5>
  400bb6:	68 01 00 00 00       	pushq  $0x1
  400bbb:	e9 d0 ff ff ff       	jmpq   400b90 <.plt>

0000000000400bc0 <strncmp@plt>:
  400bc0:	ff 25 62 44 20 00    	jmpq   *0x204462(%rip)        # 605028 <strncmp@GLIBC_2.2.5>
  400bc6:	68 02 00 00 00       	pushq  $0x2
  400bcb:	e9 c0 ff ff ff       	jmpq   400b90 <.plt>

0000000000400bd0 <strcpy@plt>:
  400bd0:	ff 25 5a 44 20 00    	jmpq   *0x20445a(%rip)        # 605030 <strcpy@GLIBC_2.2.5>
  400bd6:	68 03 00 00 00       	pushq  $0x3
  400bdb:	e9 b0 ff ff ff       	jmpq   400b90 <.plt>

0000000000400be0 <puts@plt>:
  400be0:	ff 25 52 44 20 00    	jmpq   *0x204452(%rip)        # 605038 <puts@GLIBC_2.2.5>
  400be6:	68 04 00 00 00       	pushq  $0x4
  400beb:	e9 a0 ff ff ff       	jmpq   400b90 <.plt>

0000000000400bf0 <write@plt>:
  400bf0:	ff 25 4a 44 20 00    	jmpq   *0x20444a(%rip)        # 605040 <write@GLIBC_2.2.5>
  400bf6:	68 05 00 00 00       	pushq  $0x5
  400bfb:	e9 90 ff ff ff       	jmpq   400b90 <.plt>

0000000000400c00 <mmap@plt>:
  400c00:	ff 25 42 44 20 00    	jmpq   *0x204442(%rip)        # 605048 <mmap@GLIBC_2.2.5>
  400c06:	68 06 00 00 00       	pushq  $0x6
  400c0b:	e9 80 ff ff ff       	jmpq   400b90 <.plt>

0000000000400c10 <printf@plt>:
  400c10:	ff 25 3a 44 20 00    	jmpq   *0x20443a(%rip)        # 605050 <printf@GLIBC_2.2.5>
  400c16:	68 07 00 00 00       	pushq  $0x7
  400c1b:	e9 70 ff ff ff       	jmpq   400b90 <.plt>

0000000000400c20 <memset@plt>:
  400c20:	ff 25 32 44 20 00    	jmpq   *0x204432(%rip)        # 605058 <memset@GLIBC_2.2.5>
  400c26:	68 08 00 00 00       	pushq  $0x8
  400c2b:	e9 60 ff ff ff       	jmpq   400b90 <.plt>

0000000000400c30 <alarm@plt>:
  400c30:	ff 25 2a 44 20 00    	jmpq   *0x20442a(%rip)        # 605060 <alarm@GLIBC_2.2.5>
  400c36:	68 09 00 00 00       	pushq  $0x9
  400c3b:	e9 50 ff ff ff       	jmpq   400b90 <.plt>

0000000000400c40 <close@plt>:
  400c40:	ff 25 22 44 20 00    	jmpq   *0x204422(%rip)        # 605068 <close@GLIBC_2.2.5>
  400c46:	68 0a 00 00 00       	pushq  $0xa
  400c4b:	e9 40 ff ff ff       	jmpq   400b90 <.plt>

0000000000400c50 <read@plt>:
  400c50:	ff 25 1a 44 20 00    	jmpq   *0x20441a(%rip)        # 605070 <read@GLIBC_2.2.5>
  400c56:	68 0b 00 00 00       	pushq  $0xb
  400c5b:	e9 30 ff ff ff       	jmpq   400b90 <.plt>

0000000000400c60 <__libc_start_main@plt>:
  400c60:	ff 25 12 44 20 00    	jmpq   *0x204412(%rip)        # 605078 <__libc_start_main@GLIBC_2.2.5>
  400c66:	68 0c 00 00 00       	pushq  $0xc
  400c6b:	e9 20 ff ff ff       	jmpq   400b90 <.plt>

0000000000400c70 <signal@plt>:
  400c70:	ff 25 0a 44 20 00    	jmpq   *0x20440a(%rip)        # 605080 <signal@GLIBC_2.2.5>
  400c76:	68 0d 00 00 00       	pushq  $0xd
  400c7b:	e9 10 ff ff ff       	jmpq   400b90 <.plt>

0000000000400c80 <gethostbyname@plt>:
  400c80:	ff 25 02 44 20 00    	jmpq   *0x204402(%rip)        # 605088 <gethostbyname@GLIBC_2.2.5>
  400c86:	68 0e 00 00 00       	pushq  $0xe
  400c8b:	e9 00 ff ff ff       	jmpq   400b90 <.plt>

0000000000400c90 <fprintf@plt>:
  400c90:	ff 25 fa 43 20 00    	jmpq   *0x2043fa(%rip)        # 605090 <fprintf@GLIBC_2.2.5>
  400c96:	68 0f 00 00 00       	pushq  $0xf
  400c9b:	e9 f0 fe ff ff       	jmpq   400b90 <.plt>

0000000000400ca0 <strtol@plt>:
  400ca0:	ff 25 f2 43 20 00    	jmpq   *0x2043f2(%rip)        # 605098 <strtol@GLIBC_2.2.5>
  400ca6:	68 10 00 00 00       	pushq  $0x10
  400cab:	e9 e0 fe ff ff       	jmpq   400b90 <.plt>

0000000000400cb0 <memcpy@plt>:
  400cb0:	ff 25 ea 43 20 00    	jmpq   *0x2043ea(%rip)        # 6050a0 <memcpy@GLIBC_2.14>
  400cb6:	68 11 00 00 00       	pushq  $0x11
  400cbb:	e9 d0 fe ff ff       	jmpq   400b90 <.plt>

0000000000400cc0 <time@plt>:
  400cc0:	ff 25 e2 43 20 00    	jmpq   *0x2043e2(%rip)        # 6050a8 <time@GLIBC_2.2.5>
  400cc6:	68 12 00 00 00       	pushq  $0x12
  400ccb:	e9 c0 fe ff ff       	jmpq   400b90 <.plt>

0000000000400cd0 <random@plt>:
  400cd0:	ff 25 da 43 20 00    	jmpq   *0x2043da(%rip)        # 6050b0 <random@GLIBC_2.2.5>
  400cd6:	68 13 00 00 00       	pushq  $0x13
  400cdb:	e9 b0 fe ff ff       	jmpq   400b90 <.plt>

0000000000400ce0 <_IO_getc@plt>:
  400ce0:	ff 25 d2 43 20 00    	jmpq   *0x2043d2(%rip)        # 6050b8 <_IO_getc@GLIBC_2.2.5>
  400ce6:	68 14 00 00 00       	pushq  $0x14
  400ceb:	e9 a0 fe ff ff       	jmpq   400b90 <.plt>

0000000000400cf0 <__isoc99_sscanf@plt>:
  400cf0:	ff 25 ca 43 20 00    	jmpq   *0x2043ca(%rip)        # 6050c0 <__isoc99_sscanf@GLIBC_2.7>
  400cf6:	68 15 00 00 00       	pushq  $0x15
  400cfb:	e9 90 fe ff ff       	jmpq   400b90 <.plt>

0000000000400d00 <munmap@plt>:
  400d00:	ff 25 c2 43 20 00    	jmpq   *0x2043c2(%rip)        # 6050c8 <munmap@GLIBC_2.2.5>
  400d06:	68 16 00 00 00       	pushq  $0x16
  400d0b:	e9 80 fe ff ff       	jmpq   400b90 <.plt>

0000000000400d10 <bcopy@plt>:
  400d10:	ff 25 ba 43 20 00    	jmpq   *0x2043ba(%rip)        # 6050d0 <bcopy@GLIBC_2.2.5>
  400d16:	68 17 00 00 00       	pushq  $0x17
  400d1b:	e9 70 fe ff ff       	jmpq   400b90 <.plt>

0000000000400d20 <fopen@plt>:
  400d20:	ff 25 b2 43 20 00    	jmpq   *0x2043b2(%rip)        # 6050d8 <fopen@GLIBC_2.2.5>
  400d26:	68 18 00 00 00       	pushq  $0x18
  400d2b:	e9 60 fe ff ff       	jmpq   400b90 <.plt>

0000000000400d30 <getopt@plt>:
  400d30:	ff 25 aa 43 20 00    	jmpq   *0x2043aa(%rip)        # 6050e0 <getopt@GLIBC_2.2.5>
  400d36:	68 19 00 00 00       	pushq  $0x19
  400d3b:	e9 50 fe ff ff       	jmpq   400b90 <.plt>

0000000000400d40 <strtoul@plt>:
  400d40:	ff 25 a2 43 20 00    	jmpq   *0x2043a2(%rip)        # 6050e8 <strtoul@GLIBC_2.2.5>
  400d46:	68 1a 00 00 00       	pushq  $0x1a
  400d4b:	e9 40 fe ff ff       	jmpq   400b90 <.plt>

0000000000400d50 <gethostname@plt>:
  400d50:	ff 25 9a 43 20 00    	jmpq   *0x20439a(%rip)        # 6050f0 <gethostname@GLIBC_2.2.5>
  400d56:	68 1b 00 00 00       	pushq  $0x1b
  400d5b:	e9 30 fe ff ff       	jmpq   400b90 <.plt>

0000000000400d60 <sprintf@plt>:
  400d60:	ff 25 92 43 20 00    	jmpq   *0x204392(%rip)        # 6050f8 <sprintf@GLIBC_2.2.5>
  400d66:	68 1c 00 00 00       	pushq  $0x1c
  400d6b:	e9 20 fe ff ff       	jmpq   400b90 <.plt>

0000000000400d70 <exit@plt>:
  400d70:	ff 25 8a 43 20 00    	jmpq   *0x20438a(%rip)        # 605100 <exit@GLIBC_2.2.5>
  400d76:	68 1d 00 00 00       	pushq  $0x1d
  400d7b:	e9 10 fe ff ff       	jmpq   400b90 <.plt>

0000000000400d80 <connect@plt>:
  400d80:	ff 25 82 43 20 00    	jmpq   *0x204382(%rip)        # 605108 <connect@GLIBC_2.2.5>
  400d86:	68 1e 00 00 00       	pushq  $0x1e
  400d8b:	e9 00 fe ff ff       	jmpq   400b90 <.plt>

0000000000400d90 <socket@plt>:
  400d90:	ff 25 7a 43 20 00    	jmpq   *0x20437a(%rip)        # 605110 <socket@GLIBC_2.2.5>
  400d96:	68 1f 00 00 00       	pushq  $0x1f
  400d9b:	e9 f0 fd ff ff       	jmpq   400b90 <.plt>

Disassembly of section .plt.got:

0000000000400da0 <__gmon_start__@plt>:
  400da0:	ff 25 52 42 20 00    	jmpq   *0x204252(%rip)        # 604ff8 <__gmon_start__>
  400da6:	66 90                	xchg   %ax,%ax

Disassembly of section .text:

0000000000400db0 <_start>:
  400db0:	31 ed                	xor    %ebp,%ebp
  400db2:	49 89 d1             	mov    %rdx,%r9
  400db5:	5e                   	pop    %rsi
  400db6:	48 89 e2             	mov    %rsp,%rdx
  400db9:	48 83 e4 f0          	and    $0xfffffffffffffff0,%rsp
  400dbd:	50                   	push   %rax
  400dbe:	54                   	push   %rsp
  400dbf:	49 c7 c0 a0 2b 40 00 	mov    $0x402ba0,%r8
  400dc6:	48 c7 c1 30 2b 40 00 	mov    $0x402b30,%rcx
  400dcd:	48 c7 c7 1b 10 40 00 	mov    $0x40101b,%rdi
  400dd4:	e8 87 fe ff ff       	callq  400c60 <__libc_start_main@plt>
  400dd9:	f4                   	hlt    
  400dda:	66 0f 1f 44 00 00    	nopw   0x0(%rax,%rax,1)

0000000000400de0 <deregister_tm_clones>:
  400de0:	b8 97 54 60 00       	mov    $0x605497,%eax
  400de5:	55                   	push   %rbp
  400de6:	48 2d 90 54 60 00    	sub    $0x605490,%rax
  400dec:	48 83 f8 0e          	cmp    $0xe,%rax
  400df0:	48 89 e5             	mov    %rsp,%rbp
  400df3:	77 02                	ja     400df7 <deregister_tm_clones+0x17>
  400df5:	5d                   	pop    %rbp
  400df6:	c3                   	retq   
  400df7:	b8 00 00 00 00       	mov    $0x0,%eax
  400dfc:	48 85 c0             	test   %rax,%rax
  400dff:	74 f4                	je     400df5 <deregister_tm_clones+0x15>
  400e01:	5d                   	pop    %rbp
  400e02:	bf 90 54 60 00       	mov    $0x605490,%edi
  400e07:	ff e0                	jmpq   *%rax
  400e09:	0f 1f 80 00 00 00 00 	nopl   0x0(%rax)

0000000000400e10 <register_tm_clones>:
  400e10:	b8 90 54 60 00       	mov    $0x605490,%eax
  400e15:	55                   	push   %rbp
  400e16:	48 2d 90 54 60 00    	sub    $0x605490,%rax
  400e1c:	48 c1 f8 03          	sar    $0x3,%rax
  400e20:	48 89 e5             	mov    %rsp,%rbp
  400e23:	48 89 c2             	mov    %rax,%rdx
  400e26:	48 c1 ea 3f          	shr    $0x3f,%rdx
  400e2a:	48 01 d0             	add    %rdx,%rax
  400e2d:	48 d1 f8             	sar    %rax
  400e30:	75 02                	jne    400e34 <register_tm_clones+0x24>
  400e32:	5d                   	pop    %rbp
  400e33:	c3                   	retq   
  400e34:	ba 00 00 00 00       	mov    $0x0,%edx
  400e39:	48 85 d2             	test   %rdx,%rdx
  400e3c:	74 f4                	je     400e32 <register_tm_clones+0x22>
  400e3e:	5d                   	pop    %rbp
  400e3f:	48 89 c6             	mov    %rax,%rsi
  400e42:	bf 90 54 60 00       	mov    $0x605490,%edi
  400e47:	ff e2                	jmpq   *%rdx
  400e49:	0f 1f 80 00 00 00 00 	nopl   0x0(%rax)

0000000000400e50 <__do_global_dtors_aux>:
  400e50:	80 3d 61 46 20 00 00 	cmpb   $0x0,0x204661(%rip)        # 6054b8 <completed.6355>
  400e57:	75 11                	jne    400e6a <__do_global_dtors_aux+0x1a>
  400e59:	55                   	push   %rbp
  400e5a:	48 89 e5             	mov    %rsp,%rbp
  400e5d:	e8 7e ff ff ff       	callq  400de0 <deregister_tm_clones>
  400e62:	5d                   	pop    %rbp
  400e63:	c6 05 4e 46 20 00 01 	movb   $0x1,0x20464e(%rip)        # 6054b8 <completed.6355>
  400e6a:	f3 c3                	repz retq 
  400e6c:	0f 1f 40 00          	nopl   0x0(%rax)

0000000000400e70 <frame_dummy>:
  400e70:	48 83 3d a8 3f 20 00 	cmpq   $0x0,0x203fa8(%rip)        # 604e20 <__JCR_END__>
  400e77:	00 
  400e78:	74 1e                	je     400e98 <frame_dummy+0x28>
  400e7a:	b8 00 00 00 00       	mov    $0x0,%eax
  400e7f:	48 85 c0             	test   %rax,%rax
  400e82:	74 14                	je     400e98 <frame_dummy+0x28>
  400e84:	55                   	push   %rbp
  400e85:	bf 20 4e 60 00       	mov    $0x604e20,%edi
  400e8a:	48 89 e5             	mov    %rsp,%rbp
  400e8d:	ff d0                	callq  *%rax
  400e8f:	5d                   	pop    %rbp
  400e90:	e9 7b ff ff ff       	jmpq   400e10 <register_tm_clones>
  400e95:	0f 1f 00             	nopl   (%rax)
  400e98:	e9 73 ff ff ff       	jmpq   400e10 <register_tm_clones>
  400e9d:	0f 1f 00             	nopl   (%rax)

0000000000400ea0 <usage>:
  400ea0:	48 83 ec 08          	sub    $0x8,%rsp
  400ea4:	48 89 fe             	mov    %rdi,%rsi
  400ea7:	83 3d 3a 46 20 00 00 	cmpl   $0x0,0x20463a(%rip)        # 6054e8 <is_checker>
  400eae:	74 39                	je     400ee9 <usage+0x49>
  400eb0:	bf c0 2b 40 00       	mov    $0x402bc0,%edi
  400eb5:	b8 00 00 00 00       	mov    $0x0,%eax
  400eba:	e8 51 fd ff ff       	callq  400c10 <printf@plt>
  400ebf:	bf f8 2b 40 00       	mov    $0x402bf8,%edi
  400ec4:	e8 17 fd ff ff       	callq  400be0 <puts@plt>
  400ec9:	bf 30 2d 40 00       	mov    $0x402d30,%edi
  400ece:	e8 0d fd ff ff       	callq  400be0 <puts@plt>
  400ed3:	bf 20 2c 40 00       	mov    $0x402c20,%edi
  400ed8:	e8 03 fd ff ff       	callq  400be0 <puts@plt>
  400edd:	bf 4a 2d 40 00       	mov    $0x402d4a,%edi
  400ee2:	e8 f9 fc ff ff       	callq  400be0 <puts@plt>
  400ee7:	eb 2d                	jmp    400f16 <usage+0x76>
  400ee9:	bf 66 2d 40 00       	mov    $0x402d66,%edi
  400eee:	b8 00 00 00 00       	mov    $0x0,%eax
  400ef3:	e8 18 fd ff ff       	callq  400c10 <printf@plt>
  400ef8:	bf 48 2c 40 00       	mov    $0x402c48,%edi
  400efd:	e8 de fc ff ff       	callq  400be0 <puts@plt>
  400f02:	bf 70 2c 40 00       	mov    $0x402c70,%edi
  400f07:	e8 d4 fc ff ff       	callq  400be0 <puts@plt>
  400f0c:	bf 84 2d 40 00       	mov    $0x402d84,%edi
  400f11:	e8 ca fc ff ff       	callq  400be0 <puts@plt>
  400f16:	bf 00 00 00 00       	mov    $0x0,%edi
  400f1b:	e8 50 fe ff ff       	callq  400d70 <exit@plt>

0000000000400f20 <initialize_target>:
  400f20:	55                   	push   %rbp
  400f21:	53                   	push   %rbx
  400f22:	48 81 ec 08 21 00 00 	sub    $0x2108,%rsp
  400f29:	89 f5                	mov    %esi,%ebp
  400f2b:	89 3d a7 45 20 00    	mov    %edi,0x2045a7(%rip)        # 6054d8 <check_level>
  400f31:	8b 3d 11 42 20 00    	mov    0x204211(%rip),%edi        # 605148 <target_id>
  400f37:	e8 c7 1b 00 00       	callq  402b03 <gencookie>
  400f3c:	89 05 a2 45 20 00    	mov    %eax,0x2045a2(%rip)        # 6054e4 <cookie>
  400f42:	89 c7                	mov    %eax,%edi
  400f44:	e8 ba 1b 00 00       	callq  402b03 <gencookie>
  400f49:	89 05 91 45 20 00    	mov    %eax,0x204591(%rip)        # 6054e0 <authkey>
  400f4f:	8b 05 f3 41 20 00    	mov    0x2041f3(%rip),%eax        # 605148 <target_id>
  400f55:	8d 78 01             	lea    0x1(%rax),%edi
  400f58:	e8 53 fc ff ff       	callq  400bb0 <srandom@plt>
  400f5d:	e8 6e fd ff ff       	callq  400cd0 <random@plt>
  400f62:	89 c7                	mov    %eax,%edi
  400f64:	e8 75 02 00 00       	callq  4011de <scramble>
  400f69:	89 c3                	mov    %eax,%ebx
  400f6b:	85 ed                	test   %ebp,%ebp
  400f6d:	74 18                	je     400f87 <initialize_target+0x67>
  400f6f:	bf 00 00 00 00       	mov    $0x0,%edi
  400f74:	e8 47 fd ff ff       	callq  400cc0 <time@plt>
  400f79:	89 c7                	mov    %eax,%edi
  400f7b:	e8 30 fc ff ff       	callq  400bb0 <srandom@plt>
  400f80:	e8 4b fd ff ff       	callq  400cd0 <random@plt>
  400f85:	eb 05                	jmp    400f8c <initialize_target+0x6c>
  400f87:	b8 00 00 00 00       	mov    $0x0,%eax
  400f8c:	01 c3                	add    %eax,%ebx
  400f8e:	0f b7 db             	movzwl %bx,%ebx
  400f91:	8d 04 dd 00 01 00 00 	lea    0x100(,%rbx,8),%eax
  400f98:	89 c0                	mov    %eax,%eax
  400f9a:	48 89 05 df 44 20 00 	mov    %rax,0x2044df(%rip)        # 605480 <buf_offset>
  400fa1:	c6 05 60 51 20 00 72 	movb   $0x72,0x205160(%rip)        # 606108 <target_prefix>
  400fa8:	83 3d d9 44 20 00 00 	cmpl   $0x0,0x2044d9(%rip)        # 605488 <notify>
  400faf:	74 60                	je     401011 <initialize_target+0xf1>
  400fb1:	83 3d 30 45 20 00 00 	cmpl   $0x0,0x204530(%rip)        # 6054e8 <is_checker>
  400fb8:	75 57                	jne    401011 <initialize_target+0xf1>
  400fba:	be 00 01 00 00       	mov    $0x100,%esi
  400fbf:	48 89 e7             	mov    %rsp,%rdi
  400fc2:	e8 89 fd ff ff       	callq  400d50 <gethostname@plt>
  400fc7:	85 c0                	test   %eax,%eax
  400fc9:	74 14                	je     400fdf <initialize_target+0xbf>
  400fcb:	bf a0 2c 40 00       	mov    $0x402ca0,%edi
  400fd0:	e8 0b fc ff ff       	callq  400be0 <puts@plt>
  400fd5:	bf 08 00 00 00       	mov    $0x8,%edi
  400fda:	e8 91 fd ff ff       	callq  400d70 <exit@plt>
  400fdf:	48 8d bc 24 00 01 00 	lea    0x100(%rsp),%rdi
  400fe6:	00 
  400fe7:	e8 ae 18 00 00       	callq  40289a <init_driver>
  400fec:	85 c0                	test   %eax,%eax
  400fee:	79 21                	jns    401011 <initialize_target+0xf1>
  400ff0:	48 8d b4 24 00 01 00 	lea    0x100(%rsp),%rsi
  400ff7:	00 
  400ff8:	bf d8 2c 40 00       	mov    $0x402cd8,%edi
  400ffd:	b8 00 00 00 00       	mov    $0x0,%eax
  401002:	e8 09 fc ff ff       	callq  400c10 <printf@plt>
  401007:	bf 08 00 00 00       	mov    $0x8,%edi
  40100c:	e8 5f fd ff ff       	callq  400d70 <exit@plt>
  401011:	48 81 c4 08 21 00 00 	add    $0x2108,%rsp
  401018:	5b                   	pop    %rbx
  401019:	5d                   	pop    %rbp
  40101a:	c3                   	retq   

000000000040101b <main>:
  40101b:	41 56                	push   %r14
  40101d:	41 55                	push   %r13
  40101f:	41 54                	push   %r12
  401021:	55                   	push   %rbp
  401022:	53                   	push   %rbx
  401023:	41 89 fc             	mov    %edi,%r12d
  401026:	48 89 f3             	mov    %rsi,%rbx
  401029:	be c1 1c 40 00       	mov    $0x401cc1,%esi
  40102e:	bf 0b 00 00 00       	mov    $0xb,%edi
  401033:	e8 38 fc ff ff       	callq  400c70 <signal@plt>
  401038:	be 73 1c 40 00       	mov    $0x401c73,%esi
  40103d:	bf 07 00 00 00       	mov    $0x7,%edi
  401042:	e8 29 fc ff ff       	callq  400c70 <signal@plt>
  401047:	be 0f 1d 40 00       	mov    $0x401d0f,%esi
  40104c:	bf 04 00 00 00       	mov    $0x4,%edi
  401051:	e8 1a fc ff ff       	callq  400c70 <signal@plt>
  401056:	83 3d 8b 44 20 00 00 	cmpl   $0x0,0x20448b(%rip)        # 6054e8 <is_checker>
  40105d:	74 20                	je     40107f <main+0x64>
  40105f:	be 5d 1d 40 00       	mov    $0x401d5d,%esi
  401064:	bf 0e 00 00 00       	mov    $0xe,%edi
  401069:	e8 02 fc ff ff       	callq  400c70 <signal@plt>
  40106e:	bf 05 00 00 00       	mov    $0x5,%edi
  401073:	e8 b8 fb ff ff       	callq  400c30 <alarm@plt>
  401078:	bd a2 2d 40 00       	mov    $0x402da2,%ebp
  40107d:	eb 05                	jmp    401084 <main+0x69>
  40107f:	bd 9d 2d 40 00       	mov    $0x402d9d,%ebp
  401084:	48 8b 05 15 44 20 00 	mov    0x204415(%rip),%rax        # 6054a0 <stdin@@GLIBC_2.2.5>
  40108b:	48 89 05 3e 44 20 00 	mov    %rax,0x20443e(%rip)        # 6054d0 <infile>
  401092:	41 bd 00 00 00 00    	mov    $0x0,%r13d
  401098:	41 be 00 00 00 00    	mov    $0x0,%r14d
  40109e:	e9 b9 00 00 00       	jmpq   40115c <main+0x141>
  4010a3:	83 e8 61             	sub    $0x61,%eax
  4010a6:	3c 10                	cmp    $0x10,%al
  4010a8:	0f 87 93 00 00 00    	ja     401141 <main+0x126>
  4010ae:	0f b6 c0             	movzbl %al,%eax
  4010b1:	ff 24 c5 e8 2d 40 00 	jmpq   *0x402de8(,%rax,8)
  4010b8:	48 8b 3b             	mov    (%rbx),%rdi
  4010bb:	e8 e0 fd ff ff       	callq  400ea0 <usage>
  4010c0:	be 6d 30 40 00       	mov    $0x40306d,%esi
  4010c5:	48 8b 3d dc 43 20 00 	mov    0x2043dc(%rip),%rdi        # 6054a8 <optarg@@GLIBC_2.2.5>
  4010cc:	e8 4f fc ff ff       	callq  400d20 <fopen@plt>
  4010d1:	48 89 05 f8 43 20 00 	mov    %rax,0x2043f8(%rip)        # 6054d0 <infile>
  4010d8:	48 85 c0             	test   %rax,%rax
  4010db:	75 7f                	jne    40115c <main+0x141>
  4010dd:	48 8b 15 c4 43 20 00 	mov    0x2043c4(%rip),%rdx        # 6054a8 <optarg@@GLIBC_2.2.5>
  4010e4:	be aa 2d 40 00       	mov    $0x402daa,%esi
  4010e9:	48 8b 3d c0 43 20 00 	mov    0x2043c0(%rip),%rdi        # 6054b0 <stderr@@GLIBC_2.2.5>
  4010f0:	e8 9b fb ff ff       	callq  400c90 <fprintf@plt>
  4010f5:	b8 01 00 00 00       	mov    $0x1,%eax
  4010fa:	e9 d6 00 00 00       	jmpq   4011d5 <main+0x1ba>
  4010ff:	ba 10 00 00 00       	mov    $0x10,%edx
  401104:	be 00 00 00 00       	mov    $0x0,%esi
  401109:	48 8b 3d 98 43 20 00 	mov    0x204398(%rip),%rdi        # 6054a8 <optarg@@GLIBC_2.2.5>
  401110:	e8 2b fc ff ff       	callq  400d40 <strtoul@plt>
  401115:	41 89 c6             	mov    %eax,%r14d
  401118:	eb 42                	jmp    40115c <main+0x141>
  40111a:	ba 0a 00 00 00       	mov    $0xa,%edx
  40111f:	be 00 00 00 00       	mov    $0x0,%esi
  401124:	48 8b 3d 7d 43 20 00 	mov    0x20437d(%rip),%rdi        # 6054a8 <optarg@@GLIBC_2.2.5>
  40112b:	e8 70 fb ff ff       	callq  400ca0 <strtol@plt>
  401130:	41 89 c5             	mov    %eax,%r13d
  401133:	eb 27                	jmp    40115c <main+0x141>
  401135:	c7 05 49 43 20 00 00 	movl   $0x0,0x204349(%rip)        # 605488 <notify>
  40113c:	00 00 00 
  40113f:	eb 1b                	jmp    40115c <main+0x141>
  401141:	40 0f be f6          	movsbl %sil,%esi
  401145:	bf c7 2d 40 00       	mov    $0x402dc7,%edi
  40114a:	b8 00 00 00 00       	mov    $0x0,%eax
  40114f:	e8 bc fa ff ff       	callq  400c10 <printf@plt>
  401154:	48 8b 3b             	mov    (%rbx),%rdi
  401157:	e8 44 fd ff ff       	callq  400ea0 <usage>
  40115c:	48 89 ea             	mov    %rbp,%rdx
  40115f:	48 89 de             	mov    %rbx,%rsi
  401162:	44 89 e7             	mov    %r12d,%edi
  401165:	e8 c6 fb ff ff       	callq  400d30 <getopt@plt>
  40116a:	89 c6                	mov    %eax,%esi
  40116c:	3c ff                	cmp    $0xff,%al
  40116e:	0f 85 2f ff ff ff    	jne    4010a3 <main+0x88>
  401174:	be 01 00 00 00       	mov    $0x1,%esi
  401179:	44 89 ef             	mov    %r13d,%edi
  40117c:	e8 9f fd ff ff       	callq  400f20 <initialize_target>
  401181:	83 3d 60 43 20 00 00 	cmpl   $0x0,0x204360(%rip)        # 6054e8 <is_checker>
  401188:	74 25                	je     4011af <main+0x194>
  40118a:	44 3b 35 4f 43 20 00 	cmp    0x20434f(%rip),%r14d        # 6054e0 <authkey>
  401191:	74 1c                	je     4011af <main+0x194>
  401193:	44 89 f6             	mov    %r14d,%esi
  401196:	bf 00 2d 40 00       	mov    $0x402d00,%edi
  40119b:	b8 00 00 00 00       	mov    $0x0,%eax
  4011a0:	e8 6b fa ff ff       	callq  400c10 <printf@plt>
  4011a5:	b8 00 00 00 00       	mov    $0x0,%eax
  4011aa:	e8 cc 07 00 00       	callq  40197b <check_fail>
  4011af:	8b 35 2f 43 20 00    	mov    0x20432f(%rip),%esi        # 6054e4 <cookie>
  4011b5:	bf da 2d 40 00       	mov    $0x402dda,%edi
  4011ba:	b8 00 00 00 00       	mov    $0x0,%eax
  4011bf:	e8 4c fa ff ff       	callq  400c10 <printf@plt>
  4011c4:	48 8b 3d b5 42 20 00 	mov    0x2042b5(%rip),%rdi        # 605480 <buf_offset>
  4011cb:	e8 db 0b 00 00       	callq  401dab <launch>
  4011d0:	b8 00 00 00 00       	mov    $0x0,%eax
  4011d5:	5b                   	pop    %rbx
  4011d6:	5d                   	pop    %rbp
  4011d7:	41 5c                	pop    %r12
  4011d9:	41 5d                	pop    %r13
  4011db:	41 5e                	pop    %r14
  4011dd:	c3                   	retq   

00000000004011de <scramble>:
  4011de:	b8 00 00 00 00       	mov    $0x0,%eax
  4011e3:	eb 11                	jmp    4011f6 <scramble+0x18>
  4011e5:	69 c8 17 49 00 00    	imul   $0x4917,%eax,%ecx
  4011eb:	01 f9                	add    %edi,%ecx
  4011ed:	89 c2                	mov    %eax,%edx
  4011ef:	89 4c 94 d0          	mov    %ecx,-0x30(%rsp,%rdx,4)
  4011f3:	83 c0 01             	add    $0x1,%eax
  4011f6:	83 f8 09             	cmp    $0x9,%eax
  4011f9:	76 ea                	jbe    4011e5 <scramble+0x7>
  4011fb:	8b 44 24 e8          	mov    -0x18(%rsp),%eax
  4011ff:	69 c0 0c 85 00 00    	imul   $0x850c,%eax,%eax
  401205:	89 44 24 e8          	mov    %eax,-0x18(%rsp)
  401209:	8b 44 24 dc          	mov    -0x24(%rsp),%eax
  40120d:	69 c0 54 90 00 00    	imul   $0x9054,%eax,%eax
  401213:	89 44 24 dc          	mov    %eax,-0x24(%rsp)
  401217:	8b 44 24 f0          	mov    -0x10(%rsp),%eax
  40121b:	69 c0 46 c3 00 00    	imul   $0xc346,%eax,%eax
  401221:	89 44 24 f0          	mov    %eax,-0x10(%rsp)
  401225:	8b 44 24 f4          	mov    -0xc(%rsp),%eax
  401229:	69 c0 94 9b 00 00    	imul   $0x9b94,%eax,%eax
  40122f:	89 44 24 f4          	mov    %eax,-0xc(%rsp)
  401233:	8b 44 24 e8          	mov    -0x18(%rsp),%eax
  401237:	69 c0 e7 90 00 00    	imul   $0x90e7,%eax,%eax
  40123d:	89 44 24 e8          	mov    %eax,-0x18(%rsp)
  401241:	8b 44 24 dc          	mov    -0x24(%rsp),%eax
  401245:	69 c0 ec de 00 00    	imul   $0xdeec,%eax,%eax
  40124b:	89 44 24 dc          	mov    %eax,-0x24(%rsp)
  40124f:	8b 44 24 d8          	mov    -0x28(%rsp),%eax
  401253:	69 c0 f5 7f 00 00    	imul   $0x7ff5,%eax,%eax
  401259:	89 44 24 d8          	mov    %eax,-0x28(%rsp)
  40125d:	8b 44 24 d0          	mov    -0x30(%rsp),%eax
  401261:	69 c0 16 1c 00 00    	imul   $0x1c16,%eax,%eax
  401267:	89 44 24 d0          	mov    %eax,-0x30(%rsp)
  40126b:	8b 44 24 dc          	mov    -0x24(%rsp),%eax
  40126f:	69 c0 51 50 00 00    	imul   $0x5051,%eax,%eax
  401275:	89 44 24 dc          	mov    %eax,-0x24(%rsp)
  401279:	8b 44 24 dc          	mov    -0x24(%rsp),%eax
  40127d:	69 c0 39 82 00 00    	imul   $0x8239,%eax,%eax
  401283:	89 44 24 dc          	mov    %eax,-0x24(%rsp)
  401287:	8b 44 24 ec          	mov    -0x14(%rsp),%eax
  40128b:	69 c0 8b cf 00 00    	imul   $0xcf8b,%eax,%eax
  401291:	89 44 24 ec          	mov    %eax,-0x14(%rsp)
  401295:	8b 44 24 dc          	mov    -0x24(%rsp),%eax
  401299:	69 c0 0d 34 00 00    	imul   $0x340d,%eax,%eax
  40129f:	89 44 24 dc          	mov    %eax,-0x24(%rsp)
  4012a3:	8b 44 24 f4          	mov    -0xc(%rsp),%eax
  4012a7:	69 c0 82 5d 00 00    	imul   $0x5d82,%eax,%eax
  4012ad:	89 44 24 f4          	mov    %eax,-0xc(%rsp)
  4012b1:	8b 44 24 f4          	mov    -0xc(%rsp),%eax
  4012b5:	69 c0 1a ca 00 00    	imul   $0xca1a,%eax,%eax
  4012bb:	89 44 24 f4          	mov    %eax,-0xc(%rsp)
  4012bf:	8b 44 24 dc          	mov    -0x24(%rsp),%eax
  4012c3:	69 c0 a0 06 00 00    	imul   $0x6a0,%eax,%eax
  4012c9:	89 44 24 dc          	mov    %eax,-0x24(%rsp)
  4012cd:	8b 44 24 d8          	mov    -0x28(%rsp),%eax
  4012d1:	69 c0 ba 83 00 00    	imul   $0x83ba,%eax,%eax
  4012d7:	89 44 24 d8          	mov    %eax,-0x28(%rsp)
  4012db:	8b 44 24 f0          	mov    -0x10(%rsp),%eax
  4012df:	69 c0 1d 21 00 00    	imul   $0x211d,%eax,%eax
  4012e5:	89 44 24 f0          	mov    %eax,-0x10(%rsp)
  4012e9:	8b 44 24 dc          	mov    -0x24(%rsp),%eax
  4012ed:	69 c0 38 2b 00 00    	imul   $0x2b38,%eax,%eax
  4012f3:	89 44 24 dc          	mov    %eax,-0x24(%rsp)
  4012f7:	8b 44 24 e8          	mov    -0x18(%rsp),%eax
  4012fb:	69 c0 fe db 00 00    	imul   $0xdbfe,%eax,%eax
  401301:	89 44 24 e8          	mov    %eax,-0x18(%rsp)
  401305:	8b 44 24 e4          	mov    -0x1c(%rsp),%eax
  401309:	69 c0 d5 13 00 00    	imul   $0x13d5,%eax,%eax
  40130f:	89 44 24 e4          	mov    %eax,-0x1c(%rsp)
  401313:	8b 44 24 ec          	mov    -0x14(%rsp),%eax
  401317:	69 c0 d4 2c 00 00    	imul   $0x2cd4,%eax,%eax
  40131d:	89 44 24 ec          	mov    %eax,-0x14(%rsp)
  401321:	8b 44 24 e0          	mov    -0x20(%rsp),%eax
  401325:	69 c0 5b 5b 00 00    	imul   $0x5b5b,%eax,%eax
  40132b:	89 44 24 e0          	mov    %eax,-0x20(%rsp)
  40132f:	8b 44 24 e4          	mov    -0x1c(%rsp),%eax
  401333:	69 c0 45 22 00 00    	imul   $0x2245,%eax,%eax
  401339:	89 44 24 e4          	mov    %eax,-0x1c(%rsp)
  40133d:	8b 44 24 dc          	mov    -0x24(%rsp),%eax
  401341:	69 c0 66 a9 00 00    	imul   $0xa966,%eax,%eax
  401347:	89 44 24 dc          	mov    %eax,-0x24(%rsp)
  40134b:	8b 44 24 e4          	mov    -0x1c(%rsp),%eax
  40134f:	69 c0 c2 3a 00 00    	imul   $0x3ac2,%eax,%eax
  401355:	89 44 24 e4          	mov    %eax,-0x1c(%rsp)
  401359:	8b 44 24 d4          	mov    -0x2c(%rsp),%eax
  40135d:	69 c0 42 7c 00 00    	imul   $0x7c42,%eax,%eax
  401363:	89 44 24 d4          	mov    %eax,-0x2c(%rsp)
  401367:	8b 44 24 dc          	mov    -0x24(%rsp),%eax
  40136b:	69 c0 0c 20 00 00    	imul   $0x200c,%eax,%eax
  401371:	89 44 24 dc          	mov    %eax,-0x24(%rsp)
  401375:	8b 44 24 f0          	mov    -0x10(%rsp),%eax
  401379:	69 c0 d9 73 00 00    	imul   $0x73d9,%eax,%eax
  40137f:	89 44 24 f0          	mov    %eax,-0x10(%rsp)
  401383:	8b 44 24 e4          	mov    -0x1c(%rsp),%eax
  401387:	69 c0 1a 8b 00 00    	imul   $0x8b1a,%eax,%eax
  40138d:	89 44 24 e4          	mov    %eax,-0x1c(%rsp)
  401391:	8b 44 24 dc          	mov    -0x24(%rsp),%eax
  401395:	69 c0 31 b8 00 00    	imul   $0xb831,%eax,%eax
  40139b:	89 44 24 dc          	mov    %eax,-0x24(%rsp)
  40139f:	8b 44 24 e4          	mov    -0x1c(%rsp),%eax
  4013a3:	69 c0 fc a8 00 00    	imul   $0xa8fc,%eax,%eax
  4013a9:	89 44 24 e4          	mov    %eax,-0x1c(%rsp)
  4013ad:	8b 44 24 f4          	mov    -0xc(%rsp),%eax
  4013b1:	69 c0 67 1d 00 00    	imul   $0x1d67,%eax,%eax
  4013b7:	89 44 24 f4          	mov    %eax,-0xc(%rsp)
  4013bb:	8b 44 24 dc          	mov    -0x24(%rsp),%eax
  4013bf:	69 c0 f9 4f 00 00    	imul   $0x4ff9,%eax,%eax
  4013c5:	89 44 24 dc          	mov    %eax,-0x24(%rsp)
  4013c9:	8b 44 24 e0          	mov    -0x20(%rsp),%eax
  4013cd:	69 c0 7c ae 00 00    	imul   $0xae7c,%eax,%eax
  4013d3:	89 44 24 e0          	mov    %eax,-0x20(%rsp)
  4013d7:	8b 44 24 ec          	mov    -0x14(%rsp),%eax
  4013db:	69 c0 6b 0f 00 00    	imul   $0xf6b,%eax,%eax
  4013e1:	89 44 24 ec          	mov    %eax,-0x14(%rsp)
  4013e5:	8b 44 24 e0          	mov    -0x20(%rsp),%eax
  4013e9:	69 c0 dd 98 00 00    	imul   $0x98dd,%eax,%eax
  4013ef:	89 44 24 e0          	mov    %eax,-0x20(%rsp)
  4013f3:	8b 44 24 d0          	mov    -0x30(%rsp),%eax
  4013f7:	69 c0 13 b5 00 00    	imul   $0xb513,%eax,%eax
  4013fd:	89 44 24 d0          	mov    %eax,-0x30(%rsp)
  401401:	8b 44 24 f0          	mov    -0x10(%rsp),%eax
  401405:	69 c0 0a e9 00 00    	imul   $0xe90a,%eax,%eax
  40140b:	89 44 24 f0          	mov    %eax,-0x10(%rsp)
  40140f:	8b 44 24 d8          	mov    -0x28(%rsp),%eax
  401413:	69 c0 aa 6b 00 00    	imul   $0x6baa,%eax,%eax
  401419:	89 44 24 d8          	mov    %eax,-0x28(%rsp)
  40141d:	8b 44 24 e8          	mov    -0x18(%rsp),%eax
  401421:	69 c0 ef 49 00 00    	imul   $0x49ef,%eax,%eax
  401427:	89 44 24 e8          	mov    %eax,-0x18(%rsp)
  40142b:	8b 44 24 ec          	mov    -0x14(%rsp),%eax
  40142f:	69 c0 10 be 00 00    	imul   $0xbe10,%eax,%eax
  401435:	89 44 24 ec          	mov    %eax,-0x14(%rsp)
  401439:	8b 44 24 e0          	mov    -0x20(%rsp),%eax
  40143d:	69 c0 ba b0 00 00    	imul   $0xb0ba,%eax,%eax
  401443:	89 44 24 e0          	mov    %eax,-0x20(%rsp)
  401447:	8b 44 24 ec          	mov    -0x14(%rsp),%eax
  40144b:	69 c0 81 76 00 00    	imul   $0x7681,%eax,%eax
  401451:	89 44 24 ec          	mov    %eax,-0x14(%rsp)
  401455:	8b 44 24 ec          	mov    -0x14(%rsp),%eax
  401459:	69 c0 ab 5b 00 00    	imul   $0x5bab,%eax,%eax
  40145f:	89 44 24 ec          	mov    %eax,-0x14(%rsp)
  401463:	8b 44 24 e0          	mov    -0x20(%rsp),%eax
  401467:	69 c0 86 62 00 00    	imul   $0x6286,%eax,%eax
  40146d:	89 44 24 e0          	mov    %eax,-0x20(%rsp)
  401471:	8b 44 24 e0          	mov    -0x20(%rsp),%eax
  401475:	69 c0 56 93 00 00    	imul   $0x9356,%eax,%eax
  40147b:	89 44 24 e0          	mov    %eax,-0x20(%rsp)
  40147f:	8b 44 24 f0          	mov    -0x10(%rsp),%eax
  401483:	69 c0 c8 4f 00 00    	imul   $0x4fc8,%eax,%eax
  401489:	89 44 24 f0          	mov    %eax,-0x10(%rsp)
  40148d:	8b 44 24 e4          	mov    -0x1c(%rsp),%eax
  401491:	69 c0 9b d5 00 00    	imul   $0xd59b,%eax,%eax
  401497:	89 44 24 e4          	mov    %eax,-0x1c(%rsp)
  40149b:	8b 44 24 ec          	mov    -0x14(%rsp),%eax
  40149f:	69 c0 5d f9 00 00    	imul   $0xf95d,%eax,%eax
  4014a5:	89 44 24 ec          	mov    %eax,-0x14(%rsp)
  4014a9:	8b 44 24 e4          	mov    -0x1c(%rsp),%eax
  4014ad:	69 c0 b9 cb 00 00    	imul   $0xcbb9,%eax,%eax
  4014b3:	89 44 24 e4          	mov    %eax,-0x1c(%rsp)
  4014b7:	8b 44 24 d4          	mov    -0x2c(%rsp),%eax
  4014bb:	69 c0 69 46 00 00    	imul   $0x4669,%eax,%eax
  4014c1:	89 44 24 d4          	mov    %eax,-0x2c(%rsp)
  4014c5:	8b 44 24 e0          	mov    -0x20(%rsp),%eax
  4014c9:	69 c0 09 45 00 00    	imul   $0x4509,%eax,%eax
  4014cf:	89 44 24 e0          	mov    %eax,-0x20(%rsp)
  4014d3:	8b 44 24 f4          	mov    -0xc(%rsp),%eax
  4014d7:	69 c0 cf 58 00 00    	imul   $0x58cf,%eax,%eax
  4014dd:	89 44 24 f4          	mov    %eax,-0xc(%rsp)
  4014e1:	8b 44 24 f4          	mov    -0xc(%rsp),%eax
  4014e5:	69 c0 d4 d2 00 00    	imul   $0xd2d4,%eax,%eax
  4014eb:	89 44 24 f4          	mov    %eax,-0xc(%rsp)
  4014ef:	8b 44 24 e8          	mov    -0x18(%rsp),%eax
  4014f3:	69 c0 83 c0 00 00    	imul   $0xc083,%eax,%eax
  4014f9:	89 44 24 e8          	mov    %eax,-0x18(%rsp)
  4014fd:	8b 44 24 dc          	mov    -0x24(%rsp),%eax
  401501:	69 c0 e6 6a 00 00    	imul   $0x6ae6,%eax,%eax
  401507:	89 44 24 dc          	mov    %eax,-0x24(%rsp)
  40150b:	8b 44 24 f0          	mov    -0x10(%rsp),%eax
  40150f:	69 c0 f5 e2 00 00    	imul   $0xe2f5,%eax,%eax
  401515:	89 44 24 f0          	mov    %eax,-0x10(%rsp)
  401519:	8b 44 24 f0          	mov    -0x10(%rsp),%eax
  40151d:	69 c0 b0 5c 00 00    	imul   $0x5cb0,%eax,%eax
  401523:	89 44 24 f0          	mov    %eax,-0x10(%rsp)
  401527:	8b 44 24 dc          	mov    -0x24(%rsp),%eax
  40152b:	69 c0 33 40 00 00    	imul   $0x4033,%eax,%eax
  401531:	89 44 24 dc          	mov    %eax,-0x24(%rsp)
  401535:	8b 44 24 d4          	mov    -0x2c(%rsp),%eax
  401539:	69 c0 12 5b 00 00    	imul   $0x5b12,%eax,%eax
  40153f:	89 44 24 d4          	mov    %eax,-0x2c(%rsp)
  401543:	8b 44 24 f0          	mov    -0x10(%rsp),%eax
  401547:	69 c0 37 cc 00 00    	imul   $0xcc37,%eax,%eax
  40154d:	89 44 24 f0          	mov    %eax,-0x10(%rsp)
  401551:	8b 44 24 f4          	mov    -0xc(%rsp),%eax
  401555:	69 c0 3b ae 00 00    	imul   $0xae3b,%eax,%eax
  40155b:	89 44 24 f4          	mov    %eax,-0xc(%rsp)
  40155f:	8b 44 24 d0          	mov    -0x30(%rsp),%eax
  401563:	69 c0 26 9f 00 00    	imul   $0x9f26,%eax,%eax
  401569:	89 44 24 d0          	mov    %eax,-0x30(%rsp)
  40156d:	8b 44 24 d8          	mov    -0x28(%rsp),%eax
  401571:	69 c0 c1 bb 00 00    	imul   $0xbbc1,%eax,%eax
  401577:	89 44 24 d8          	mov    %eax,-0x28(%rsp)
  40157b:	8b 44 24 e0          	mov    -0x20(%rsp),%eax
  40157f:	69 c0 ed 07 00 00    	imul   $0x7ed,%eax,%eax
  401585:	89 44 24 e0          	mov    %eax,-0x20(%rsp)
  401589:	8b 44 24 e8          	mov    -0x18(%rsp),%eax
  40158d:	69 c0 4d a1 00 00    	imul   $0xa14d,%eax,%eax
  401593:	89 44 24 e8          	mov    %eax,-0x18(%rsp)
  401597:	8b 44 24 d0          	mov    -0x30(%rsp),%eax
  40159b:	69 c0 11 ec 00 00    	imul   $0xec11,%eax,%eax
  4015a1:	89 44 24 d0          	mov    %eax,-0x30(%rsp)
  4015a5:	8b 44 24 f4          	mov    -0xc(%rsp),%eax
  4015a9:	69 c0 d2 49 00 00    	imul   $0x49d2,%eax,%eax
  4015af:	89 44 24 f4          	mov    %eax,-0xc(%rsp)
  4015b3:	8b 44 24 ec          	mov    -0x14(%rsp),%eax
  4015b7:	69 c0 69 14 00 00    	imul   $0x1469,%eax,%eax
  4015bd:	89 44 24 ec          	mov    %eax,-0x14(%rsp)
  4015c1:	8b 44 24 e0          	mov    -0x20(%rsp),%eax
  4015c5:	69 c0 5a 09 00 00    	imul   $0x95a,%eax,%eax
  4015cb:	89 44 24 e0          	mov    %eax,-0x20(%rsp)
  4015cf:	8b 44 24 e8          	mov    -0x18(%rsp),%eax
  4015d3:	69 c0 6b 39 00 00    	imul   $0x396b,%eax,%eax
  4015d9:	89 44 24 e8          	mov    %eax,-0x18(%rsp)
  4015dd:	8b 44 24 f0          	mov    -0x10(%rsp),%eax
  4015e1:	69 c0 80 53 00 00    	imul   $0x5380,%eax,%eax
  4015e7:	89 44 24 f0          	mov    %eax,-0x10(%rsp)
  4015eb:	8b 44 24 d0          	mov    -0x30(%rsp),%eax
  4015ef:	69 c0 e0 8f 00 00    	imul   $0x8fe0,%eax,%eax
  4015f5:	89 44 24 d0          	mov    %eax,-0x30(%rsp)
  4015f9:	8b 44 24 d4          	mov    -0x2c(%rsp),%eax
  4015fd:	69 c0 d7 75 00 00    	imul   $0x75d7,%eax,%eax
  401603:	89 44 24 d4          	mov    %eax,-0x2c(%rsp)
  401607:	8b 44 24 ec          	mov    -0x14(%rsp),%eax
  40160b:	69 c0 8b 68 00 00    	imul   $0x688b,%eax,%eax
  401611:	89 44 24 ec          	mov    %eax,-0x14(%rsp)
  401615:	8b 44 24 d8          	mov    -0x28(%rsp),%eax
  401619:	69 c0 cc 72 00 00    	imul   $0x72cc,%eax,%eax
  40161f:	89 44 24 d8          	mov    %eax,-0x28(%rsp)
  401623:	ba 00 00 00 00       	mov    $0x0,%edx
  401628:	b8 00 00 00 00       	mov    $0x0,%eax
  40162d:	eb 0b                	jmp    40163a <scramble+0x45c>
  40162f:	89 d1                	mov    %edx,%ecx
  401631:	8b 4c 8c d0          	mov    -0x30(%rsp,%rcx,4),%ecx
  401635:	01 c8                	add    %ecx,%eax
  401637:	83 c2 01             	add    $0x1,%edx
  40163a:	83 fa 09             	cmp    $0x9,%edx
  40163d:	76 f0                	jbe    40162f <scramble+0x451>
  40163f:	f3 c3                	repz retq 

0000000000401641 <getbuf>:
  401641:	48 83 ec 28          	sub    $0x28,%rsp
  401645:	48 89 e7             	mov    %rsp,%rdi
  401648:	e8 5d 03 00 00       	callq  4019aa <Gets>
  40164d:	b8 01 00 00 00       	mov    $0x1,%eax
  401652:	48 83 c4 28          	add    $0x28,%rsp
  401656:	c3                   	retq   

0000000000401657 <touch1>:
  401657:	48 83 ec 08          	sub    $0x8,%rsp
  40165b:	c7 05 77 3e 20 00 01 	movl   $0x1,0x203e77(%rip)        # 6054dc <vlevel>
  401662:	00 00 00 
  401665:	bf c5 2e 40 00       	mov    $0x402ec5,%edi
  40166a:	e8 71 f5 ff ff       	callq  400be0 <puts@plt>
  40166f:	bf 01 00 00 00       	mov    $0x1,%edi
  401674:	e8 20 05 00 00       	callq  401b99 <validate>
  401679:	bf 00 00 00 00       	mov    $0x0,%edi
  40167e:	e8 ed f6 ff ff       	callq  400d70 <exit@plt>

0000000000401683 <touch2>:
  401683:	48 83 ec 08          	sub    $0x8,%rsp
  401687:	89 fe                	mov    %edi,%esi
  401689:	c7 05 49 3e 20 00 02 	movl   $0x2,0x203e49(%rip)        # 6054dc <vlevel>
  401690:	00 00 00 
  401693:	3b 3d 4b 3e 20 00    	cmp    0x203e4b(%rip),%edi        # 6054e4 <cookie>
  401699:	75 1b                	jne    4016b6 <touch2+0x33>
  40169b:	bf e8 2e 40 00       	mov    $0x402ee8,%edi
  4016a0:	b8 00 00 00 00       	mov    $0x0,%eax
  4016a5:	e8 66 f5 ff ff       	callq  400c10 <printf@plt>
  4016aa:	bf 02 00 00 00       	mov    $0x2,%edi
  4016af:	e8 e5 04 00 00       	callq  401b99 <validate>
  4016b4:	eb 19                	jmp    4016cf <touch2+0x4c>
  4016b6:	bf 10 2f 40 00       	mov    $0x402f10,%edi
  4016bb:	b8 00 00 00 00       	mov    $0x0,%eax
  4016c0:	e8 4b f5 ff ff       	callq  400c10 <printf@plt>
  4016c5:	bf 02 00 00 00       	mov    $0x2,%edi
  4016ca:	e8 7c 05 00 00       	callq  401c4b <fail>
  4016cf:	bf 00 00 00 00       	mov    $0x0,%edi
  4016d4:	e8 97 f6 ff ff       	callq  400d70 <exit@plt>

00000000004016d9 <hexmatch>:
  4016d9:	41 54                	push   %r12
  4016db:	55                   	push   %rbp
  4016dc:	53                   	push   %rbx
  4016dd:	48 83 ec 70          	sub    $0x70,%rsp
  4016e1:	41 89 fc             	mov    %edi,%r12d
  4016e4:	48 89 f5             	mov    %rsi,%rbp
  4016e7:	e8 e4 f5 ff ff       	callq  400cd0 <random@plt>
  4016ec:	48 89 c1             	mov    %rax,%rcx
  4016ef:	48 ba 0b d7 a3 70 3d 	movabs $0xa3d70a3d70a3d70b,%rdx
  4016f6:	0a d7 a3 
  4016f9:	48 f7 ea             	imul   %rdx
  4016fc:	48 8d 04 0a          	lea    (%rdx,%rcx,1),%rax
  401700:	48 c1 f8 06          	sar    $0x6,%rax
  401704:	48 89 ce             	mov    %rcx,%rsi
  401707:	48 c1 fe 3f          	sar    $0x3f,%rsi
  40170b:	48 29 f0             	sub    %rsi,%rax
  40170e:	48 8d 04 80          	lea    (%rax,%rax,4),%rax
  401712:	48 8d 04 80          	lea    (%rax,%rax,4),%rax
  401716:	48 c1 e0 02          	shl    $0x2,%rax
  40171a:	48 29 c1             	sub    %rax,%rcx
  40171d:	48 8d 1c 0c          	lea    (%rsp,%rcx,1),%rbx
  401721:	44 89 e2             	mov    %r12d,%edx
  401724:	be e2 2e 40 00       	mov    $0x402ee2,%esi
  401729:	48 89 df             	mov    %rbx,%rdi
  40172c:	b8 00 00 00 00       	mov    $0x0,%eax
  401731:	e8 2a f6 ff ff       	callq  400d60 <sprintf@plt>
  401736:	ba 09 00 00 00       	mov    $0x9,%edx
  40173b:	48 89 de             	mov    %rbx,%rsi
  40173e:	48 89 ef             	mov    %rbp,%rdi
  401741:	e8 7a f4 ff ff       	callq  400bc0 <strncmp@plt>
  401746:	85 c0                	test   %eax,%eax
  401748:	0f 94 c0             	sete   %al
  40174b:	0f b6 c0             	movzbl %al,%eax
  40174e:	48 83 c4 70          	add    $0x70,%rsp
  401752:	5b                   	pop    %rbx
  401753:	5d                   	pop    %rbp
  401754:	41 5c                	pop    %r12
  401756:	c3                   	retq   

0000000000401757 <touch3>:
  401757:	53                   	push   %rbx
  401758:	48 89 fb             	mov    %rdi,%rbx
  40175b:	c7 05 77 3d 20 00 03 	movl   $0x3,0x203d77(%rip)        # 6054dc <vlevel>
  401762:	00 00 00 
  401765:	48 89 fe             	mov    %rdi,%rsi
  401768:	8b 3d 76 3d 20 00    	mov    0x203d76(%rip),%edi        # 6054e4 <cookie>
  40176e:	e8 66 ff ff ff       	callq  4016d9 <hexmatch>
  401773:	85 c0                	test   %eax,%eax
  401775:	74 1e                	je     401795 <touch3+0x3e>
  401777:	48 89 de             	mov    %rbx,%rsi
  40177a:	bf 38 2f 40 00       	mov    $0x402f38,%edi
  40177f:	b8 00 00 00 00       	mov    $0x0,%eax
  401784:	e8 87 f4 ff ff       	callq  400c10 <printf@plt>
  401789:	bf 03 00 00 00       	mov    $0x3,%edi
  40178e:	e8 06 04 00 00       	callq  401b99 <validate>
  401793:	eb 1c                	jmp    4017b1 <touch3+0x5a>
  401795:	48 89 de             	mov    %rbx,%rsi
  401798:	bf 60 2f 40 00       	mov    $0x402f60,%edi
  40179d:	b8 00 00 00 00       	mov    $0x0,%eax
  4017a2:	e8 69 f4 ff ff       	callq  400c10 <printf@plt>
  4017a7:	bf 03 00 00 00       	mov    $0x3,%edi
  4017ac:	e8 9a 04 00 00       	callq  401c4b <fail>
  4017b1:	bf 00 00 00 00       	mov    $0x0,%edi
  4017b6:	e8 b5 f5 ff ff       	callq  400d70 <exit@plt>

00000000004017bb <test>:
  4017bb:	48 83 ec 08          	sub    $0x8,%rsp
  4017bf:	b8 00 00 00 00       	mov    $0x0,%eax
  4017c4:	e8 78 fe ff ff       	callq  401641 <getbuf>
  4017c9:	89 c6                	mov    %eax,%esi
  4017cb:	bf 88 2f 40 00       	mov    $0x402f88,%edi
  4017d0:	b8 00 00 00 00       	mov    $0x0,%eax
  4017d5:	e8 36 f4 ff ff       	callq  400c10 <printf@plt>
  4017da:	48 83 c4 08          	add    $0x8,%rsp
  4017de:	c3                   	retq   

00000000004017df <start_farm>:
  4017df:	b8 01 00 00 00       	mov    $0x1,%eax
  4017e4:	c3                   	retq   

00000000004017e5 <addval_434>:
  4017e5:	8d 87 48 8b c7 c3    	lea    -0x3c3874b8(%rdi),%eax
  4017eb:	c3                   	retq   

00000000004017ec <addval_226>:
  4017ec:	8d 87 58 90 90 c3    	lea    -0x3c6f6fa8(%rdi),%eax # popq %rax 0x4017ee
  4017f2:	c3                   	retq   

00000000004017f3 <getval_180>:
  4017f3:	b8 48 89 c7 90       	mov    $0x90c78948,%eax	# movq %rax,%rdi 0x4017f4
  4017f8:	c3                   	retq   

00000000004017f9 <setval_400>:
  4017f9:	c7 07 48 89 c7 92    	movl   $0x92c78948,(%rdi)
  4017ff:	c3                   	retq   

0000000000401800 <addval_174>:
  401800:	8d 87 d8 c3 64 ff    	lea    -0x9b3c28(%rdi),%eax
  401806:	c3                   	retq   

0000000000401807 <getval_446>:
  401807:	b8 78 90 90 90       	mov    $0x90909078,%eax
  40180c:	c3                   	retq   

000000000040180d <setval_131>:
  40180d:	c7 07 e3 af 58 90    	movl   $0x9058afe3,(%rdi)
  401813:	c3                   	retq   

0000000000401814 <getval_317>:
  401814:	b8 48 89 c7 90       	mov    $0x90c78948,%eax #movl %eax,%edi 0x401816
  401819:	c3                   	retq   

000000000040181a <mid_farm>:
  40181a:	b8 01 00 00 00       	mov    $0x1,%eax
  40181f:	c3                   	retq   

0000000000401820 <add_xy>:
  401820:	48 8d 04 37          	lea    (%rdi,%rsi,1),%rax #计算偏移 0x401820 add 0x37 .al 0x401822
  401824:	c3                   	retq   

0000000000401825 <getval_497>:
  401825:	b8 48 81 e0 c3       	mov    $0xc3e08148,%eax
  40182a:	c3                   	retq   

000000000040182b <addval_473>:
  40182b:	8d 87 99 d1 20 c9    	lea    -0x36df2e67(%rdi),%eax
  401831:	c3                   	retq   

0000000000401832 <getval_496>:
  401832:	b8 48 89 e0 c3       	mov    $0xc3e08948,%eax # movq %rsp,%rax 0x401833
  401837:	c3                   	retq   

0000000000401838 <addval_223>:
  401838:	8d 87 89 c2 90 c3    	lea    -0x3c6f3d77(%rdi),%eax #movl %eax,%edx 0x40183a
  40183e:	c3                   	retq   

000000000040183f <setval_185>:
  40183f:	c7 07 c9 c2 08 c0    	movl   $0xc008c2c9,(%rdi)
  401845:	c3                   	retq   

0000000000401846 <getval_341>:
  401846:	b8 48 89 e0 92       	mov    $0x92e08948,%eax
  40184b:	c3                   	retq   

000000000040184c <setval_440>:
  40184c:	c7 07 89 ce 84 c0    	movl   $0xc084ce89,(%rdi)
  401852:	c3                   	retq   

0000000000401853 <setval_311>:
  401853:	c7 07 81 d1 08 d2    	movl   $0xd208d181,(%rdi)
  401859:	c3                   	retq   

000000000040185a <setval_305>:
  40185a:	c7 07 89 d1 84 c0    	movl   $0xc084d189,(%rdi)
  401860:	c3                   	retq   

0000000000401861 <setval_364>:
  401861:	c7 07 b9 48 89 e0    	movl   $0xe08948b9,(%rdi)
  401867:	c3                   	retq   

0000000000401868 <addval_182>:
  401868:	8d 87 89 ce 94 c3    	lea    -0x3c6b3177(%rdi),%eax #movl %ecx,%esi 0x40186a
  40186e:	c3                   	retq   

000000000040186f <addval_145>:
  40186f:	8d 87 89 ce 90 c7    	lea    -0x386f3177(%rdi),%eax
  401875:	c3                   	retq   

0000000000401876 <getval_130>:
  401876:	b8 c9 c2 c3 67       	mov    $0x67c3c2c9,%eax
  40187b:	c3                   	retq   

000000000040187c <setval_439>:
  40187c:	c7 07 08 89 e0 c3    	movl   $0xc3e08908,(%rdi) # movl %esp,%eax 0x40187f
  401882:	c3                   	retq   

0000000000401883 <getval_286>:
  401883:	b8 a9 c2 84 db       	mov    $0xdb84c2a9,%eax
  401888:	c3                   	retq   

0000000000401889 <addval_227>:
  401889:	8d 87 89 d1 00 db    	lea    -0x24ff2e77(%rdi),%eax
  40188f:	c3                   	retq   

0000000000401890 <getval_443>:
  401890:	b8 89 d1 c4 db       	mov    $0xdbc4d189,%eax
  401895:	c3                   	retq   

0000000000401896 <getval_343>:
  401896:	b8 89 c2 90 c2       	mov    $0xc290c289,%eax
  40189b:	c3                   	retq   

000000000040189c <getval_428>:
  40189c:	b8 89 d1 78 c9       	mov    $0xc978d189,%eax
  4018a1:	c3                   	retq   

00000000004018a2 <addval_113>:
  4018a2:	8d 87 d5 81 c2 c3    	lea    -0x3c3d7e2b(%rdi),%eax
  4018a8:	c3                   	retq   

00000000004018a9 <getval_158>:
  4018a9:	b8 48 89 e0 92       	mov    $0x92e08948,%eax
  4018ae:	c3                   	retq   

00000000004018af <addval_411>:
  4018af:	8d 87 c9 48 8d e0    	lea    -0x1f72b737(%rdi),%eax
  4018b5:	c3                   	retq   

00000000004018b6 <setval_314>:
  4018b6:	c7 07 89 c2 84 d2    	movl   $0xd284c289,(%rdi)
  4018bc:	c3                   	retq   

00000000004018bd <addval_382>:
  4018bd:	8d 87 89 ce 60 c9    	lea    -0x369f3177(%rdi),%eax
  4018c3:	c3                   	retq   

00000000004018c4 <setval_257>:
  4018c4:	c7 07 89 ce 38 db    	movl   $0xdb38ce89,(%rdi)
  4018ca:	c3                   	retq   

00000000004018cb <addval_193>:
  4018cb:	8d 87 89 d1 38 d2    	lea    -0x2dc72e77(%rdi),%eax
  4018d1:	c3                   	retq   

00000000004018d2 <setval_487>:
  4018d2:	c7 07 81 ce 90 c3    	movl   $0xc390ce81,(%rdi)
  4018d8:	c3                   	retq   

00000000004018d9 <setval_463>:
  4018d9:	c7 07 c9 d1 08 d2    	movl   $0xd208d1c9,(%rdi)
  4018df:	c3                   	retq   

00000000004018e0 <setval_210>:
  4018e0:	c7 07 d2 89 c2 94    	movl   $0x94c289d2,(%rdi)
  4018e6:	c3                   	retq   

00000000004018e7 <getval_105>:
  4018e7:	b8 48 89 e0 c2       	mov    $0xc2e08948,%eax
  4018ec:	c3                   	retq   

00000000004018ed <setval_337>:
  4018ed:	c7 07 89 ce c4 c0    	movl   $0xc0c4ce89,(%rdi)
  4018f3:	c3                   	retq   

00000000004018f4 <setval_132>:
  4018f4:	c7 07 a9 ce 84 d2    	movl   $0xd284cea9,(%rdi)
  4018fa:	c3                   	retq   

00000000004018fb <end_farm>:
  4018fb:	b8 01 00 00 00       	mov    $0x1,%eax
  401900:	c3                   	retq   
  401901:	66 2e 0f 1f 84 00 00 	nopw   %cs:0x0(%rax,%rax,1)
  401908:	00 00 00 
  40190b:	0f 1f 44 00 00       	nopl   0x0(%rax,%rax,1)

0000000000401910 <save_char>:
  401910:	8b 05 ee 47 20 00    	mov    0x2047ee(%rip),%eax        # 606104 <gets_cnt>
  401916:	3d ff 03 00 00       	cmp    $0x3ff,%eax
  40191b:	7f 49                	jg     401966 <save_char+0x56>
  40191d:	8d 14 40             	lea    (%rax,%rax,2),%edx
  401920:	89 f9                	mov    %edi,%ecx
  401922:	c0 e9 04             	shr    $0x4,%cl
  401925:	83 e1 0f             	and    $0xf,%ecx
  401928:	0f b6 b1 b0 32 40 00 	movzbl 0x4032b0(%rcx),%esi
  40192f:	48 63 ca             	movslq %edx,%rcx
  401932:	40 88 b1 00 55 60 00 	mov    %sil,0x605500(%rcx)
  401939:	8d 4a 01             	lea    0x1(%rdx),%ecx
  40193c:	83 e7 0f             	and    $0xf,%edi
  40193f:	0f b6 b7 b0 32 40 00 	movzbl 0x4032b0(%rdi),%esi
  401946:	48 63 c9             	movslq %ecx,%rcx
  401949:	40 88 b1 00 55 60 00 	mov    %sil,0x605500(%rcx)
  401950:	83 c2 02             	add    $0x2,%edx
  401953:	48 63 d2             	movslq %edx,%rdx
  401956:	c6 82 00 55 60 00 20 	movb   $0x20,0x605500(%rdx)
  40195d:	83 c0 01             	add    $0x1,%eax
  401960:	89 05 9e 47 20 00    	mov    %eax,0x20479e(%rip)        # 606104 <gets_cnt>
  401966:	f3 c3                	repz retq 

0000000000401968 <save_term>:
  401968:	8b 05 96 47 20 00    	mov    0x204796(%rip),%eax        # 606104 <gets_cnt>
  40196e:	8d 04 40             	lea    (%rax,%rax,2),%eax
  401971:	48 98                	cltq   
  401973:	c6 80 00 55 60 00 00 	movb   $0x0,0x605500(%rax)
  40197a:	c3                   	retq   

000000000040197b <check_fail>:
  40197b:	48 83 ec 08          	sub    $0x8,%rsp
  40197f:	0f be 35 82 47 20 00 	movsbl 0x204782(%rip),%esi        # 606108 <target_prefix>
  401986:	b9 00 55 60 00       	mov    $0x605500,%ecx
  40198b:	8b 15 47 3b 20 00    	mov    0x203b47(%rip),%edx        # 6054d8 <check_level>
  401991:	bf ab 2f 40 00       	mov    $0x402fab,%edi
  401996:	b8 00 00 00 00       	mov    $0x0,%eax
  40199b:	e8 70 f2 ff ff       	callq  400c10 <printf@plt>
  4019a0:	bf 01 00 00 00       	mov    $0x1,%edi
  4019a5:	e8 c6 f3 ff ff       	callq  400d70 <exit@plt>

00000000004019aa <Gets>:
  4019aa:	41 54                	push   %r12
  4019ac:	55                   	push   %rbp
  4019ad:	53                   	push   %rbx
  4019ae:	49 89 fc             	mov    %rdi,%r12
  4019b1:	c7 05 49 47 20 00 00 	movl   $0x0,0x204749(%rip)        # 606104 <gets_cnt>
  4019b8:	00 00 00 
  4019bb:	48 89 fb             	mov    %rdi,%rbx
  4019be:	eb 11                	jmp    4019d1 <Gets+0x27>
  4019c0:	48 8d 6b 01          	lea    0x1(%rbx),%rbp
  4019c4:	88 03                	mov    %al,(%rbx)
  4019c6:	0f b6 f8             	movzbl %al,%edi
  4019c9:	e8 42 ff ff ff       	callq  401910 <save_char>
  4019ce:	48 89 eb             	mov    %rbp,%rbx
  4019d1:	48 8b 3d f8 3a 20 00 	mov    0x203af8(%rip),%rdi        # 6054d0 <infile>
  4019d8:	e8 03 f3 ff ff       	callq  400ce0 <_IO_getc@plt>
  4019dd:	83 f8 ff             	cmp    $0xffffffff,%eax
  4019e0:	74 05                	je     4019e7 <Gets+0x3d>
  4019e2:	83 f8 0a             	cmp    $0xa,%eax
  4019e5:	75 d9                	jne    4019c0 <Gets+0x16>
  4019e7:	c6 03 00             	movb   $0x0,(%rbx)
  4019ea:	b8 00 00 00 00       	mov    $0x0,%eax
  4019ef:	e8 74 ff ff ff       	callq  401968 <save_term>
  4019f4:	4c 89 e0             	mov    %r12,%rax
  4019f7:	5b                   	pop    %rbx
  4019f8:	5d                   	pop    %rbp
  4019f9:	41 5c                	pop    %r12
  4019fb:	c3                   	retq   

00000000004019fc <notify_server>:
  4019fc:	83 3d e5 3a 20 00 00 	cmpl   $0x0,0x203ae5(%rip)        # 6054e8 <is_checker>
  401a03:	0f 85 8e 01 00 00    	jne    401b97 <notify_server+0x19b>
  401a09:	53                   	push   %rbx
  401a0a:	48 81 ec 10 40 00 00 	sub    $0x4010,%rsp
  401a11:	89 fb                	mov    %edi,%ebx
  401a13:	8b 05 eb 46 20 00    	mov    0x2046eb(%rip),%eax        # 606104 <gets_cnt>
  401a19:	83 c0 64             	add    $0x64,%eax
  401a1c:	3d 00 20 00 00       	cmp    $0x2000,%eax
  401a21:	7e 19                	jle    401a3c <notify_server+0x40>
  401a23:	bf e0 30 40 00       	mov    $0x4030e0,%edi
  401a28:	b8 00 00 00 00       	mov    $0x0,%eax
  401a2d:	e8 de f1 ff ff       	callq  400c10 <printf@plt>
  401a32:	bf 01 00 00 00       	mov    $0x1,%edi
  401a37:	e8 34 f3 ff ff       	callq  400d70 <exit@plt>
  401a3c:	44 0f be 0d c4 46 20 	movsbl 0x2046c4(%rip),%r9d        # 606108 <target_prefix>
  401a43:	00 
  401a44:	83 3d 3d 3a 20 00 00 	cmpl   $0x0,0x203a3d(%rip)        # 605488 <notify>
  401a4b:	74 09                	je     401a56 <notify_server+0x5a>
  401a4d:	44 8b 05 8c 3a 20 00 	mov    0x203a8c(%rip),%r8d        # 6054e0 <authkey>
  401a54:	eb 06                	jmp    401a5c <notify_server+0x60>
  401a56:	41 b8 ff ff ff ff    	mov    $0xffffffff,%r8d
  401a5c:	85 db                	test   %ebx,%ebx
  401a5e:	74 07                	je     401a67 <notify_server+0x6b>
  401a60:	b9 c1 2f 40 00       	mov    $0x402fc1,%ecx
  401a65:	eb 05                	jmp    401a6c <notify_server+0x70>
  401a67:	b9 c6 2f 40 00       	mov    $0x402fc6,%ecx
  401a6c:	48 c7 44 24 08 00 55 	movq   $0x605500,0x8(%rsp)
  401a73:	60 00 
  401a75:	89 34 24             	mov    %esi,(%rsp)
  401a78:	8b 15 ca 36 20 00    	mov    0x2036ca(%rip),%edx        # 605148 <target_id>
  401a7e:	be cb 2f 40 00       	mov    $0x402fcb,%esi
  401a83:	48 8d bc 24 10 20 00 	lea    0x2010(%rsp),%rdi
  401a8a:	00 
  401a8b:	b8 00 00 00 00       	mov    $0x0,%eax
  401a90:	e8 cb f2 ff ff       	callq  400d60 <sprintf@plt>
  401a95:	83 3d ec 39 20 00 00 	cmpl   $0x0,0x2039ec(%rip)        # 605488 <notify>
  401a9c:	74 78                	je     401b16 <notify_server+0x11a>
  401a9e:	85 db                	test   %ebx,%ebx
  401aa0:	74 68                	je     401b0a <notify_server+0x10e>
  401aa2:	4c 8d 4c 24 10       	lea    0x10(%rsp),%r9
  401aa7:	41 b8 00 00 00 00    	mov    $0x0,%r8d
  401aad:	48 8d 8c 24 10 20 00 	lea    0x2010(%rsp),%rcx
  401ab4:	00 
  401ab5:	48 8b 15 94 36 20 00 	mov    0x203694(%rip),%rdx        # 605150 <lab>
  401abc:	48 8b 35 95 36 20 00 	mov    0x203695(%rip),%rsi        # 605158 <course>
  401ac3:	48 8b 3d 76 36 20 00 	mov    0x203676(%rip),%rdi        # 605140 <user_id>
  401aca:	e8 94 0f 00 00       	callq  402a63 <driver_post>
  401acf:	85 c0                	test   %eax,%eax
  401ad1:	79 1e                	jns    401af1 <notify_server+0xf5>
  401ad3:	48 8d 74 24 10       	lea    0x10(%rsp),%rsi
  401ad8:	bf e7 2f 40 00       	mov    $0x402fe7,%edi
  401add:	b8 00 00 00 00       	mov    $0x0,%eax
  401ae2:	e8 29 f1 ff ff       	callq  400c10 <printf@plt>
  401ae7:	bf 01 00 00 00       	mov    $0x1,%edi
  401aec:	e8 7f f2 ff ff       	callq  400d70 <exit@plt>
  401af1:	bf 10 31 40 00       	mov    $0x403110,%edi
  401af6:	e8 e5 f0 ff ff       	callq  400be0 <puts@plt>
  401afb:	bf f3 2f 40 00       	mov    $0x402ff3,%edi
  401b00:	e8 db f0 ff ff       	callq  400be0 <puts@plt>
  401b05:	e9 85 00 00 00       	jmpq   401b8f <notify_server+0x193>
  401b0a:	bf fd 2f 40 00       	mov    $0x402ffd,%edi
  401b0f:	e8 cc f0 ff ff       	callq  400be0 <puts@plt>
  401b14:	eb 79                	jmp    401b8f <notify_server+0x193>
  401b16:	85 db                	test   %ebx,%ebx
  401b18:	74 08                	je     401b22 <notify_server+0x126>
  401b1a:	be c1 2f 40 00       	mov    $0x402fc1,%esi
  401b1f:	90                   	nop
  401b20:	eb 05                	jmp    401b27 <notify_server+0x12b>
  401b22:	be c6 2f 40 00       	mov    $0x402fc6,%esi
  401b27:	bf 48 31 40 00       	mov    $0x403148,%edi
  401b2c:	b8 00 00 00 00       	mov    $0x0,%eax
  401b31:	e8 da f0 ff ff       	callq  400c10 <printf@plt>
  401b36:	48 8b 35 03 36 20 00 	mov    0x203603(%rip),%rsi        # 605140 <user_id>
  401b3d:	bf 04 30 40 00       	mov    $0x403004,%edi
  401b42:	b8 00 00 00 00       	mov    $0x0,%eax
  401b47:	e8 c4 f0 ff ff       	callq  400c10 <printf@plt>
  401b4c:	48 8b 35 05 36 20 00 	mov    0x203605(%rip),%rsi        # 605158 <course>
  401b53:	bf 11 30 40 00       	mov    $0x403011,%edi
  401b58:	b8 00 00 00 00       	mov    $0x0,%eax
  401b5d:	e8 ae f0 ff ff       	callq  400c10 <printf@plt>
  401b62:	48 8b 35 e7 35 20 00 	mov    0x2035e7(%rip),%rsi        # 605150 <lab>
  401b69:	bf 1d 30 40 00       	mov    $0x40301d,%edi
  401b6e:	b8 00 00 00 00       	mov    $0x0,%eax
  401b73:	e8 98 f0 ff ff       	callq  400c10 <printf@plt>
  401b78:	48 8d b4 24 10 20 00 	lea    0x2010(%rsp),%rsi
  401b7f:	00 
  401b80:	bf 26 30 40 00       	mov    $0x403026,%edi
  401b85:	b8 00 00 00 00       	mov    $0x0,%eax
  401b8a:	e8 81 f0 ff ff       	callq  400c10 <printf@plt>
  401b8f:	48 81 c4 10 40 00 00 	add    $0x4010,%rsp
  401b96:	5b                   	pop    %rbx
  401b97:	f3 c3                	repz retq 

0000000000401b99 <validate>:
  401b99:	53                   	push   %rbx
  401b9a:	89 fb                	mov    %edi,%ebx
  401b9c:	83 3d 45 39 20 00 00 	cmpl   $0x0,0x203945(%rip)        # 6054e8 <is_checker>
  401ba3:	74 60                	je     401c05 <validate+0x6c>
  401ba5:	39 3d 31 39 20 00    	cmp    %edi,0x203931(%rip)        # 6054dc <vlevel>
  401bab:	74 14                	je     401bc1 <validate+0x28>
  401bad:	bf 32 30 40 00       	mov    $0x403032,%edi
  401bb2:	e8 29 f0 ff ff       	callq  400be0 <puts@plt>
  401bb7:	b8 00 00 00 00       	mov    $0x0,%eax
  401bbc:	e8 ba fd ff ff       	callq  40197b <check_fail>
  401bc1:	8b 35 11 39 20 00    	mov    0x203911(%rip),%esi        # 6054d8 <check_level>
  401bc7:	39 fe                	cmp    %edi,%esi
  401bc9:	74 1b                	je     401be6 <validate+0x4d>
  401bcb:	89 fa                	mov    %edi,%edx
  401bcd:	bf 70 31 40 00       	mov    $0x403170,%edi
  401bd2:	b8 00 00 00 00       	mov    $0x0,%eax
  401bd7:	e8 34 f0 ff ff       	callq  400c10 <printf@plt>
  401bdc:	b8 00 00 00 00       	mov    $0x0,%eax
  401be1:	e8 95 fd ff ff       	callq  40197b <check_fail>
  401be6:	0f be 35 1b 45 20 00 	movsbl 0x20451b(%rip),%esi        # 606108 <target_prefix>
  401bed:	b9 00 55 60 00       	mov    $0x605500,%ecx
  401bf2:	89 fa                	mov    %edi,%edx
  401bf4:	bf 50 30 40 00       	mov    $0x403050,%edi
  401bf9:	b8 00 00 00 00       	mov    $0x0,%eax
  401bfe:	e8 0d f0 ff ff       	callq  400c10 <printf@plt>
  401c03:	eb 44                	jmp    401c49 <validate+0xb0>
  401c05:	39 3d d1 38 20 00    	cmp    %edi,0x2038d1(%rip)        # 6054dc <vlevel>
  401c0b:	74 18                	je     401c25 <validate+0x8c>
  401c0d:	bf 32 30 40 00       	mov    $0x403032,%edi
  401c12:	e8 c9 ef ff ff       	callq  400be0 <puts@plt>
  401c17:	89 de                	mov    %ebx,%esi
  401c19:	bf 00 00 00 00       	mov    $0x0,%edi
  401c1e:	e8 d9 fd ff ff       	callq  4019fc <notify_server>
  401c23:	eb 24                	jmp    401c49 <validate+0xb0>
  401c25:	0f be 15 dc 44 20 00 	movsbl 0x2044dc(%rip),%edx        # 606108 <target_prefix>
  401c2c:	89 fe                	mov    %edi,%esi
  401c2e:	bf 98 31 40 00       	mov    $0x403198,%edi
  401c33:	b8 00 00 00 00       	mov    $0x0,%eax
  401c38:	e8 d3 ef ff ff       	callq  400c10 <printf@plt>
  401c3d:	89 de                	mov    %ebx,%esi
  401c3f:	bf 01 00 00 00       	mov    $0x1,%edi
  401c44:	e8 b3 fd ff ff       	callq  4019fc <notify_server>
  401c49:	5b                   	pop    %rbx
  401c4a:	c3                   	retq   

0000000000401c4b <fail>:
  401c4b:	48 83 ec 08          	sub    $0x8,%rsp
  401c4f:	83 3d 92 38 20 00 00 	cmpl   $0x0,0x203892(%rip)        # 6054e8 <is_checker>
  401c56:	74 0a                	je     401c62 <fail+0x17>
  401c58:	b8 00 00 00 00       	mov    $0x0,%eax
  401c5d:	e8 19 fd ff ff       	callq  40197b <check_fail>
  401c62:	89 fe                	mov    %edi,%esi
  401c64:	bf 00 00 00 00       	mov    $0x0,%edi
  401c69:	e8 8e fd ff ff       	callq  4019fc <notify_server>
  401c6e:	48 83 c4 08          	add    $0x8,%rsp
  401c72:	c3                   	retq   

0000000000401c73 <bushandler>:
  401c73:	48 83 ec 08          	sub    $0x8,%rsp
  401c77:	83 3d 6a 38 20 00 00 	cmpl   $0x0,0x20386a(%rip)        # 6054e8 <is_checker>
  401c7e:	74 14                	je     401c94 <bushandler+0x21>
  401c80:	bf 65 30 40 00       	mov    $0x403065,%edi
  401c85:	e8 56 ef ff ff       	callq  400be0 <puts@plt>
  401c8a:	b8 00 00 00 00       	mov    $0x0,%eax
  401c8f:	e8 e7 fc ff ff       	callq  40197b <check_fail>
  401c94:	bf d0 31 40 00       	mov    $0x4031d0,%edi
  401c99:	e8 42 ef ff ff       	callq  400be0 <puts@plt>
  401c9e:	bf 6f 30 40 00       	mov    $0x40306f,%edi
  401ca3:	e8 38 ef ff ff       	callq  400be0 <puts@plt>
  401ca8:	be 00 00 00 00       	mov    $0x0,%esi
  401cad:	bf 00 00 00 00       	mov    $0x0,%edi
  401cb2:	e8 45 fd ff ff       	callq  4019fc <notify_server>
  401cb7:	bf 01 00 00 00       	mov    $0x1,%edi
  401cbc:	e8 af f0 ff ff       	callq  400d70 <exit@plt>

0000000000401cc1 <seghandler>:
  401cc1:	48 83 ec 08          	sub    $0x8,%rsp
  401cc5:	83 3d 1c 38 20 00 00 	cmpl   $0x0,0x20381c(%rip)        # 6054e8 <is_checker>
  401ccc:	74 14                	je     401ce2 <seghandler+0x21>
  401cce:	bf 85 30 40 00       	mov    $0x403085,%edi
  401cd3:	e8 08 ef ff ff       	callq  400be0 <puts@plt>
  401cd8:	b8 00 00 00 00       	mov    $0x0,%eax
  401cdd:	e8 99 fc ff ff       	callq  40197b <check_fail>
  401ce2:	bf f0 31 40 00       	mov    $0x4031f0,%edi
  401ce7:	e8 f4 ee ff ff       	callq  400be0 <puts@plt>
  401cec:	bf 6f 30 40 00       	mov    $0x40306f,%edi
  401cf1:	e8 ea ee ff ff       	callq  400be0 <puts@plt>
  401cf6:	be 00 00 00 00       	mov    $0x0,%esi
  401cfb:	bf 00 00 00 00       	mov    $0x0,%edi
  401d00:	e8 f7 fc ff ff       	callq  4019fc <notify_server>
  401d05:	bf 01 00 00 00       	mov    $0x1,%edi
  401d0a:	e8 61 f0 ff ff       	callq  400d70 <exit@plt>

0000000000401d0f <illegalhandler>:
  401d0f:	48 83 ec 08          	sub    $0x8,%rsp
  401d13:	83 3d ce 37 20 00 00 	cmpl   $0x0,0x2037ce(%rip)        # 6054e8 <is_checker>
  401d1a:	74 14                	je     401d30 <illegalhandler+0x21>
  401d1c:	bf 98 30 40 00       	mov    $0x403098,%edi
  401d21:	e8 ba ee ff ff       	callq  400be0 <puts@plt>
  401d26:	b8 00 00 00 00       	mov    $0x0,%eax
  401d2b:	e8 4b fc ff ff       	callq  40197b <check_fail>
  401d30:	bf 18 32 40 00       	mov    $0x403218,%edi
  401d35:	e8 a6 ee ff ff       	callq  400be0 <puts@plt>
  401d3a:	bf 6f 30 40 00       	mov    $0x40306f,%edi
  401d3f:	e8 9c ee ff ff       	callq  400be0 <puts@plt>
  401d44:	be 00 00 00 00       	mov    $0x0,%esi
  401d49:	bf 00 00 00 00       	mov    $0x0,%edi
  401d4e:	e8 a9 fc ff ff       	callq  4019fc <notify_server>
  401d53:	bf 01 00 00 00       	mov    $0x1,%edi
  401d58:	e8 13 f0 ff ff       	callq  400d70 <exit@plt>

0000000000401d5d <sigalrmhandler>:
  401d5d:	48 83 ec 08          	sub    $0x8,%rsp
  401d61:	83 3d 80 37 20 00 00 	cmpl   $0x0,0x203780(%rip)        # 6054e8 <is_checker>
  401d68:	74 14                	je     401d7e <sigalrmhandler+0x21>
  401d6a:	bf ac 30 40 00       	mov    $0x4030ac,%edi
  401d6f:	e8 6c ee ff ff       	callq  400be0 <puts@plt>
  401d74:	b8 00 00 00 00       	mov    $0x0,%eax
  401d79:	e8 fd fb ff ff       	callq  40197b <check_fail>
  401d7e:	be 05 00 00 00       	mov    $0x5,%esi
  401d83:	bf 48 32 40 00       	mov    $0x403248,%edi
  401d88:	b8 00 00 00 00       	mov    $0x0,%eax
  401d8d:	e8 7e ee ff ff       	callq  400c10 <printf@plt>
  401d92:	be 00 00 00 00       	mov    $0x0,%esi
  401d97:	bf 00 00 00 00       	mov    $0x0,%edi
  401d9c:	e8 5b fc ff ff       	callq  4019fc <notify_server>
  401da1:	bf 01 00 00 00       	mov    $0x1,%edi
  401da6:	e8 c5 ef ff ff       	callq  400d70 <exit@plt>

0000000000401dab <launch>:
  401dab:	55                   	push   %rbp
  401dac:	48 89 e5             	mov    %rsp,%rbp
  401daf:	48 89 fa             	mov    %rdi,%rdx
  401db2:	48 8d 47 1e          	lea    0x1e(%rdi),%rax
  401db6:	48 83 e0 f0          	and    $0xfffffffffffffff0,%rax
  401dba:	48 29 c4             	sub    %rax,%rsp
  401dbd:	48 8d 7c 24 0f       	lea    0xf(%rsp),%rdi
  401dc2:	48 83 e7 f0          	and    $0xfffffffffffffff0,%rdi
  401dc6:	be f4 00 00 00       	mov    $0xf4,%esi
  401dcb:	e8 50 ee ff ff       	callq  400c20 <memset@plt>
  401dd0:	48 8b 05 c9 36 20 00 	mov    0x2036c9(%rip),%rax        # 6054a0 <stdin@@GLIBC_2.2.5>
  401dd7:	48 39 05 f2 36 20 00 	cmp    %rax,0x2036f2(%rip)        # 6054d0 <infile>
  401dde:	75 0f                	jne    401def <launch+0x44>
  401de0:	bf b4 30 40 00       	mov    $0x4030b4,%edi
  401de5:	b8 00 00 00 00       	mov    $0x0,%eax
  401dea:	e8 21 ee ff ff       	callq  400c10 <printf@plt>
  401def:	c7 05 e3 36 20 00 00 	movl   $0x0,0x2036e3(%rip)        # 6054dc <vlevel>
  401df6:	00 00 00 
  401df9:	b8 00 00 00 00       	mov    $0x0,%eax
  401dfe:	e8 b8 f9 ff ff       	callq  4017bb <test>
  401e03:	83 3d de 36 20 00 00 	cmpl   $0x0,0x2036de(%rip)        # 6054e8 <is_checker>
  401e0a:	74 14                	je     401e20 <launch+0x75>
  401e0c:	bf c1 30 40 00       	mov    $0x4030c1,%edi
  401e11:	e8 ca ed ff ff       	callq  400be0 <puts@plt>
  401e16:	b8 00 00 00 00       	mov    $0x0,%eax
  401e1b:	e8 5b fb ff ff       	callq  40197b <check_fail>
  401e20:	bf cc 30 40 00       	mov    $0x4030cc,%edi
  401e25:	e8 b6 ed ff ff       	callq  400be0 <puts@plt>
  401e2a:	c9                   	leaveq 
  401e2b:	c3                   	retq   

0000000000401e2c <stable_launch>:
  401e2c:	53                   	push   %rbx
  401e2d:	48 89 3d 94 36 20 00 	mov    %rdi,0x203694(%rip)        # 6054c8 <global_offset>
  401e34:	41 b9 00 00 00 00    	mov    $0x0,%r9d
  401e3a:	41 b8 00 00 00 00    	mov    $0x0,%r8d
  401e40:	b9 32 01 00 00       	mov    $0x132,%ecx
  401e45:	ba 07 00 00 00       	mov    $0x7,%edx
  401e4a:	be 00 00 10 00       	mov    $0x100000,%esi
  401e4f:	bf 00 60 58 55       	mov    $0x55586000,%edi
  401e54:	e8 a7 ed ff ff       	callq  400c00 <mmap@plt>
  401e59:	48 89 c3             	mov    %rax,%rbx
  401e5c:	48 3d 00 60 58 55    	cmp    $0x55586000,%rax
  401e62:	74 32                	je     401e96 <stable_launch+0x6a>
  401e64:	be 00 00 10 00       	mov    $0x100000,%esi
  401e69:	48 89 c7             	mov    %rax,%rdi
  401e6c:	e8 8f ee ff ff       	callq  400d00 <munmap@plt>
  401e71:	ba 00 60 58 55       	mov    $0x55586000,%edx
  401e76:	be 80 32 40 00       	mov    $0x403280,%esi
  401e7b:	48 8b 3d 2e 36 20 00 	mov    0x20362e(%rip),%rdi        # 6054b0 <stderr@@GLIBC_2.2.5>
  401e82:	b8 00 00 00 00       	mov    $0x0,%eax
  401e87:	e8 04 ee ff ff       	callq  400c90 <fprintf@plt>
  401e8c:	bf 01 00 00 00       	mov    $0x1,%edi
  401e91:	e8 da ee ff ff       	callq  400d70 <exit@plt>
  401e96:	48 8d 90 f8 ff 0f 00 	lea    0xffff8(%rax),%rdx
  401e9d:	48 89 15 6c 42 20 00 	mov    %rdx,0x20426c(%rip)        # 606110 <stack_top>
  401ea4:	48 89 e0             	mov    %rsp,%rax
  401ea7:	48 89 d4             	mov    %rdx,%rsp
  401eaa:	48 89 c2             	mov    %rax,%rdx
  401ead:	48 89 15 0c 36 20 00 	mov    %rdx,0x20360c(%rip)        # 6054c0 <global_save_stack>
  401eb4:	48 8b 3d 0d 36 20 00 	mov    0x20360d(%rip),%rdi        # 6054c8 <global_offset>
  401ebb:	e8 eb fe ff ff       	callq  401dab <launch>
  401ec0:	48 8b 05 f9 35 20 00 	mov    0x2035f9(%rip),%rax        # 6054c0 <global_save_stack>
  401ec7:	48 89 c4             	mov    %rax,%rsp
  401eca:	be 00 00 10 00       	mov    $0x100000,%esi
  401ecf:	48 89 df             	mov    %rbx,%rdi
  401ed2:	e8 29 ee ff ff       	callq  400d00 <munmap@plt>
  401ed7:	5b                   	pop    %rbx
  401ed8:	c3                   	retq   
  401ed9:	0f 1f 80 00 00 00 00 	nopl   0x0(%rax)

0000000000401ee0 <rio_readinitb>:
  401ee0:	89 37                	mov    %esi,(%rdi)
  401ee2:	c7 47 04 00 00 00 00 	movl   $0x0,0x4(%rdi)
  401ee9:	48 8d 47 10          	lea    0x10(%rdi),%rax
  401eed:	48 89 47 08          	mov    %rax,0x8(%rdi)
  401ef1:	c3                   	retq   

0000000000401ef2 <sigalrm_handler>:
  401ef2:	48 83 ec 08          	sub    $0x8,%rsp
  401ef6:	ba 00 00 00 00       	mov    $0x0,%edx
  401efb:	be c0 32 40 00       	mov    $0x4032c0,%esi
  401f00:	48 8b 3d a9 35 20 00 	mov    0x2035a9(%rip),%rdi        # 6054b0 <stderr@@GLIBC_2.2.5>
  401f07:	b8 00 00 00 00       	mov    $0x0,%eax
  401f0c:	e8 7f ed ff ff       	callq  400c90 <fprintf@plt>
  401f11:	bf 01 00 00 00       	mov    $0x1,%edi
  401f16:	e8 55 ee ff ff       	callq  400d70 <exit@plt>

0000000000401f1b <urlencode>:
  401f1b:	41 54                	push   %r12
  401f1d:	55                   	push   %rbp
  401f1e:	53                   	push   %rbx
  401f1f:	48 83 ec 10          	sub    $0x10,%rsp
  401f23:	48 89 fb             	mov    %rdi,%rbx
  401f26:	48 89 f5             	mov    %rsi,%rbp
  401f29:	b8 00 00 00 00       	mov    $0x0,%eax
  401f2e:	48 c7 c1 ff ff ff ff 	mov    $0xffffffffffffffff,%rcx
  401f35:	f2 ae                	repnz scas %es:(%rdi),%al
  401f37:	48 f7 d1             	not    %rcx
  401f3a:	8d 41 ff             	lea    -0x1(%rcx),%eax
  401f3d:	e9 93 00 00 00       	jmpq   401fd5 <urlencode+0xba>
  401f42:	0f b6 13             	movzbl (%rbx),%edx
  401f45:	80 fa 2a             	cmp    $0x2a,%dl
  401f48:	0f 94 c1             	sete   %cl
  401f4b:	80 fa 2d             	cmp    $0x2d,%dl
  401f4e:	0f 94 c0             	sete   %al
  401f51:	08 c1                	or     %al,%cl
  401f53:	75 1f                	jne    401f74 <urlencode+0x59>
  401f55:	80 fa 2e             	cmp    $0x2e,%dl
  401f58:	74 1a                	je     401f74 <urlencode+0x59>
  401f5a:	80 fa 5f             	cmp    $0x5f,%dl
  401f5d:	74 15                	je     401f74 <urlencode+0x59>
  401f5f:	8d 42 d0             	lea    -0x30(%rdx),%eax
  401f62:	3c 09                	cmp    $0x9,%al
  401f64:	76 0e                	jbe    401f74 <urlencode+0x59>
  401f66:	8d 42 bf             	lea    -0x41(%rdx),%eax
  401f69:	3c 19                	cmp    $0x19,%al
  401f6b:	76 07                	jbe    401f74 <urlencode+0x59>
  401f6d:	8d 42 9f             	lea    -0x61(%rdx),%eax
  401f70:	3c 19                	cmp    $0x19,%al
  401f72:	77 09                	ja     401f7d <urlencode+0x62>
  401f74:	88 55 00             	mov    %dl,0x0(%rbp)
  401f77:	48 8d 6d 01          	lea    0x1(%rbp),%rbp
  401f7b:	eb 51                	jmp    401fce <urlencode+0xb3>
  401f7d:	80 fa 20             	cmp    $0x20,%dl
  401f80:	75 0a                	jne    401f8c <urlencode+0x71>
  401f82:	c6 45 00 2b          	movb   $0x2b,0x0(%rbp)
  401f86:	48 8d 6d 01          	lea    0x1(%rbp),%rbp
  401f8a:	eb 42                	jmp    401fce <urlencode+0xb3>
  401f8c:	8d 42 e0             	lea    -0x20(%rdx),%eax
  401f8f:	3c 5f                	cmp    $0x5f,%al
  401f91:	0f 96 c1             	setbe  %cl
  401f94:	80 fa 09             	cmp    $0x9,%dl
  401f97:	0f 94 c0             	sete   %al
  401f9a:	08 c1                	or     %al,%cl
  401f9c:	74 45                	je     401fe3 <urlencode+0xc8>
  401f9e:	0f b6 d2             	movzbl %dl,%edx
  401fa1:	be 58 33 40 00       	mov    $0x403358,%esi
  401fa6:	48 89 e7             	mov    %rsp,%rdi
  401fa9:	b8 00 00 00 00       	mov    $0x0,%eax
  401fae:	e8 ad ed ff ff       	callq  400d60 <sprintf@plt>
  401fb3:	0f b6 04 24          	movzbl (%rsp),%eax
  401fb7:	88 45 00             	mov    %al,0x0(%rbp)
  401fba:	0f b6 44 24 01       	movzbl 0x1(%rsp),%eax
  401fbf:	88 45 01             	mov    %al,0x1(%rbp)
  401fc2:	0f b6 44 24 02       	movzbl 0x2(%rsp),%eax
  401fc7:	88 45 02             	mov    %al,0x2(%rbp)
  401fca:	48 8d 6d 03          	lea    0x3(%rbp),%rbp
  401fce:	48 83 c3 01          	add    $0x1,%rbx
  401fd2:	44 89 e0             	mov    %r12d,%eax
  401fd5:	44 8d 60 ff          	lea    -0x1(%rax),%r12d
  401fd9:	85 c0                	test   %eax,%eax
  401fdb:	0f 85 61 ff ff ff    	jne    401f42 <urlencode+0x27>
  401fe1:	eb 05                	jmp    401fe8 <urlencode+0xcd>
  401fe3:	b8 ff ff ff ff       	mov    $0xffffffff,%eax
  401fe8:	48 83 c4 10          	add    $0x10,%rsp
  401fec:	5b                   	pop    %rbx
  401fed:	5d                   	pop    %rbp
  401fee:	41 5c                	pop    %r12
  401ff0:	c3                   	retq   

0000000000401ff1 <rio_writen>:
  401ff1:	41 55                	push   %r13
  401ff3:	41 54                	push   %r12
  401ff5:	55                   	push   %rbp
  401ff6:	53                   	push   %rbx
  401ff7:	48 83 ec 08          	sub    $0x8,%rsp
  401ffb:	41 89 fc             	mov    %edi,%r12d
  401ffe:	48 89 f5             	mov    %rsi,%rbp
  402001:	49 89 d5             	mov    %rdx,%r13
  402004:	48 89 d3             	mov    %rdx,%rbx
  402007:	eb 28                	jmp    402031 <rio_writen+0x40>
  402009:	48 89 da             	mov    %rbx,%rdx
  40200c:	48 89 ee             	mov    %rbp,%rsi
  40200f:	44 89 e7             	mov    %r12d,%edi
  402012:	e8 d9 eb ff ff       	callq  400bf0 <write@plt>
  402017:	48 85 c0             	test   %rax,%rax
  40201a:	7f 0f                	jg     40202b <rio_writen+0x3a>
  40201c:	e8 7f eb ff ff       	callq  400ba0 <__errno_location@plt>
  402021:	83 38 04             	cmpl   $0x4,(%rax)
  402024:	75 15                	jne    40203b <rio_writen+0x4a>
  402026:	b8 00 00 00 00       	mov    $0x0,%eax
  40202b:	48 29 c3             	sub    %rax,%rbx
  40202e:	48 01 c5             	add    %rax,%rbp
  402031:	48 85 db             	test   %rbx,%rbx
  402034:	75 d3                	jne    402009 <rio_writen+0x18>
  402036:	4c 89 e8             	mov    %r13,%rax
  402039:	eb 07                	jmp    402042 <rio_writen+0x51>
  40203b:	48 c7 c0 ff ff ff ff 	mov    $0xffffffffffffffff,%rax
  402042:	48 83 c4 08          	add    $0x8,%rsp
  402046:	5b                   	pop    %rbx
  402047:	5d                   	pop    %rbp
  402048:	41 5c                	pop    %r12
  40204a:	41 5d                	pop    %r13
  40204c:	c3                   	retq   

000000000040204d <rio_read>:
  40204d:	41 56                	push   %r14
  40204f:	41 55                	push   %r13
  402051:	41 54                	push   %r12
  402053:	55                   	push   %rbp
  402054:	53                   	push   %rbx
  402055:	48 89 fb             	mov    %rdi,%rbx
  402058:	49 89 f6             	mov    %rsi,%r14
  40205b:	49 89 d5             	mov    %rdx,%r13
  40205e:	4c 8d 67 10          	lea    0x10(%rdi),%r12
  402062:	eb 2a                	jmp    40208e <rio_read+0x41>
  402064:	ba 00 20 00 00       	mov    $0x2000,%edx
  402069:	4c 89 e6             	mov    %r12,%rsi
  40206c:	8b 3b                	mov    (%rbx),%edi
  40206e:	e8 dd eb ff ff       	callq  400c50 <read@plt>
  402073:	89 43 04             	mov    %eax,0x4(%rbx)
  402076:	85 c0                	test   %eax,%eax
  402078:	79 0c                	jns    402086 <rio_read+0x39>
  40207a:	e8 21 eb ff ff       	callq  400ba0 <__errno_location@plt>
  40207f:	83 38 04             	cmpl   $0x4,(%rax)
  402082:	74 0a                	je     40208e <rio_read+0x41>
  402084:	eb 37                	jmp    4020bd <rio_read+0x70>
  402086:	85 c0                	test   %eax,%eax
  402088:	74 3c                	je     4020c6 <rio_read+0x79>
  40208a:	4c 89 63 08          	mov    %r12,0x8(%rbx)
  40208e:	8b 6b 04             	mov    0x4(%rbx),%ebp
  402091:	85 ed                	test   %ebp,%ebp
  402093:	7e cf                	jle    402064 <rio_read+0x17>
  402095:	89 e8                	mov    %ebp,%eax
  402097:	4c 39 e8             	cmp    %r13,%rax
  40209a:	72 03                	jb     40209f <rio_read+0x52>
  40209c:	44 89 ed             	mov    %r13d,%ebp
  40209f:	4c 63 e5             	movslq %ebp,%r12
  4020a2:	48 8b 73 08          	mov    0x8(%rbx),%rsi
  4020a6:	4c 89 e2             	mov    %r12,%rdx
  4020a9:	4c 89 f7             	mov    %r14,%rdi
  4020ac:	e8 ff eb ff ff       	callq  400cb0 <memcpy@plt>
  4020b1:	4c 01 63 08          	add    %r12,0x8(%rbx)
  4020b5:	29 6b 04             	sub    %ebp,0x4(%rbx)
  4020b8:	4c 89 e0             	mov    %r12,%rax
  4020bb:	eb 0e                	jmp    4020cb <rio_read+0x7e>
  4020bd:	48 c7 c0 ff ff ff ff 	mov    $0xffffffffffffffff,%rax
  4020c4:	eb 05                	jmp    4020cb <rio_read+0x7e>
  4020c6:	b8 00 00 00 00       	mov    $0x0,%eax
  4020cb:	5b                   	pop    %rbx
  4020cc:	5d                   	pop    %rbp
  4020cd:	41 5c                	pop    %r12
  4020cf:	41 5d                	pop    %r13
  4020d1:	41 5e                	pop    %r14
  4020d3:	c3                   	retq   

00000000004020d4 <rio_readlineb>:
  4020d4:	41 55                	push   %r13
  4020d6:	41 54                	push   %r12
  4020d8:	55                   	push   %rbp
  4020d9:	53                   	push   %rbx
  4020da:	48 83 ec 18          	sub    $0x18,%rsp
  4020de:	49 89 fd             	mov    %rdi,%r13
  4020e1:	48 89 f5             	mov    %rsi,%rbp
  4020e4:	49 89 d4             	mov    %rdx,%r12
  4020e7:	bb 01 00 00 00       	mov    $0x1,%ebx
  4020ec:	eb 3d                	jmp    40212b <rio_readlineb+0x57>
  4020ee:	ba 01 00 00 00       	mov    $0x1,%edx
  4020f3:	48 8d 74 24 0f       	lea    0xf(%rsp),%rsi
  4020f8:	4c 89 ef             	mov    %r13,%rdi
  4020fb:	e8 4d ff ff ff       	callq  40204d <rio_read>
  402100:	83 f8 01             	cmp    $0x1,%eax
  402103:	75 12                	jne    402117 <rio_readlineb+0x43>
  402105:	48 8d 55 01          	lea    0x1(%rbp),%rdx
  402109:	0f b6 44 24 0f       	movzbl 0xf(%rsp),%eax
  40210e:	88 45 00             	mov    %al,0x0(%rbp)
  402111:	3c 0a                	cmp    $0xa,%al
  402113:	75 0f                	jne    402124 <rio_readlineb+0x50>
  402115:	eb 1b                	jmp    402132 <rio_readlineb+0x5e>
  402117:	85 c0                	test   %eax,%eax
  402119:	75 23                	jne    40213e <rio_readlineb+0x6a>
  40211b:	48 83 fb 01          	cmp    $0x1,%rbx
  40211f:	90                   	nop
  402120:	75 13                	jne    402135 <rio_readlineb+0x61>
  402122:	eb 23                	jmp    402147 <rio_readlineb+0x73>
  402124:	48 83 c3 01          	add    $0x1,%rbx
  402128:	48 89 d5             	mov    %rdx,%rbp
  40212b:	4c 39 e3             	cmp    %r12,%rbx
  40212e:	72 be                	jb     4020ee <rio_readlineb+0x1a>
  402130:	eb 03                	jmp    402135 <rio_readlineb+0x61>
  402132:	48 89 d5             	mov    %rdx,%rbp
  402135:	c6 45 00 00          	movb   $0x0,0x0(%rbp)
  402139:	48 89 d8             	mov    %rbx,%rax
  40213c:	eb 0e                	jmp    40214c <rio_readlineb+0x78>
  40213e:	48 c7 c0 ff ff ff ff 	mov    $0xffffffffffffffff,%rax
  402145:	eb 05                	jmp    40214c <rio_readlineb+0x78>
  402147:	b8 00 00 00 00       	mov    $0x0,%eax
  40214c:	48 83 c4 18          	add    $0x18,%rsp
  402150:	5b                   	pop    %rbx
  402151:	5d                   	pop    %rbp
  402152:	41 5c                	pop    %r12
  402154:	41 5d                	pop    %r13
  402156:	c3                   	retq   

0000000000402157 <submitr>:
  402157:	41 57                	push   %r15
  402159:	41 56                	push   %r14
  40215b:	41 55                	push   %r13
  40215d:	41 54                	push   %r12
  40215f:	55                   	push   %rbp
  402160:	53                   	push   %rbx
  402161:	48 81 ec 48 a0 00 00 	sub    $0xa048,%rsp
  402168:	49 89 fc             	mov    %rdi,%r12
  40216b:	89 74 24 04          	mov    %esi,0x4(%rsp)
  40216f:	49 89 d7             	mov    %rdx,%r15
  402172:	49 89 ce             	mov    %rcx,%r14
  402175:	4c 89 44 24 08       	mov    %r8,0x8(%rsp)
  40217a:	4d 89 cd             	mov    %r9,%r13
  40217d:	48 8b 9c 24 80 a0 00 	mov    0xa080(%rsp),%rbx
  402184:	00 
  402185:	c7 84 24 1c 20 00 00 	movl   $0x0,0x201c(%rsp)
  40218c:	00 00 00 00 
  402190:	ba 00 00 00 00       	mov    $0x0,%edx
  402195:	be 01 00 00 00       	mov    $0x1,%esi
  40219a:	bf 02 00 00 00       	mov    $0x2,%edi
  40219f:	e8 ec eb ff ff       	callq  400d90 <socket@plt>
  4021a4:	89 c5                	mov    %eax,%ebp
  4021a6:	85 c0                	test   %eax,%eax
  4021a8:	79 4e                	jns    4021f8 <submitr+0xa1>
  4021aa:	48 b8 45 72 72 6f 72 	movabs $0x43203a726f727245,%rax
  4021b1:	3a 20 43 
  4021b4:	48 89 03             	mov    %rax,(%rbx)
  4021b7:	48 b8 6c 69 65 6e 74 	movabs $0x6e7520746e65696c,%rax
  4021be:	20 75 6e 
  4021c1:	48 89 43 08          	mov    %rax,0x8(%rbx)
  4021c5:	48 b8 61 62 6c 65 20 	movabs $0x206f7420656c6261,%rax
  4021cc:	74 6f 20 
  4021cf:	48 89 43 10          	mov    %rax,0x10(%rbx)
  4021d3:	48 b8 63 72 65 61 74 	movabs $0x7320657461657263,%rax
  4021da:	65 20 73 
  4021dd:	48 89 43 18          	mov    %rax,0x18(%rbx)
  4021e1:	c7 43 20 6f 63 6b 65 	movl   $0x656b636f,0x20(%rbx)
  4021e8:	66 c7 43 24 74 00    	movw   $0x74,0x24(%rbx)
  4021ee:	b8 ff ff ff ff       	mov    $0xffffffff,%eax
  4021f3:	e9 68 06 00 00       	jmpq   402860 <submitr+0x709>
  4021f8:	4c 89 e7             	mov    %r12,%rdi
  4021fb:	e8 80 ea ff ff       	callq  400c80 <gethostbyname@plt>
  402200:	48 85 c0             	test   %rax,%rax
  402203:	75 67                	jne    40226c <submitr+0x115>
  402205:	48 b8 45 72 72 6f 72 	movabs $0x44203a726f727245,%rax
  40220c:	3a 20 44 
  40220f:	48 89 03             	mov    %rax,(%rbx)
  402212:	48 b8 4e 53 20 69 73 	movabs $0x6e7520736920534e,%rax
  402219:	20 75 6e 
  40221c:	48 89 43 08          	mov    %rax,0x8(%rbx)
  402220:	48 b8 61 62 6c 65 20 	movabs $0x206f7420656c6261,%rax
  402227:	74 6f 20 
  40222a:	48 89 43 10          	mov    %rax,0x10(%rbx)
  40222e:	48 b8 72 65 73 6f 6c 	movabs $0x2065766c6f736572,%rax
  402235:	76 65 20 
  402238:	48 89 43 18          	mov    %rax,0x18(%rbx)
  40223c:	48 b8 73 65 72 76 65 	movabs $0x6120726576726573,%rax
  402243:	72 20 61 
  402246:	48 89 43 20          	mov    %rax,0x20(%rbx)
  40224a:	c7 43 28 64 64 72 65 	movl   $0x65726464,0x28(%rbx)
  402251:	66 c7 43 2c 73 73    	movw   $0x7373,0x2c(%rbx)
  402257:	c6 43 2e 00          	movb   $0x0,0x2e(%rbx)
  40225b:	89 ef                	mov    %ebp,%edi
  40225d:	e8 de e9 ff ff       	callq  400c40 <close@plt>
  402262:	b8 ff ff ff ff       	mov    $0xffffffff,%eax
  402267:	e9 f4 05 00 00       	jmpq   402860 <submitr+0x709>
  40226c:	48 c7 84 24 30 a0 00 	movq   $0x0,0xa030(%rsp)
  402273:	00 00 00 00 00 
  402278:	48 c7 84 24 38 a0 00 	movq   $0x0,0xa038(%rsp)
  40227f:	00 00 00 00 00 
  402284:	66 c7 84 24 30 a0 00 	movw   $0x2,0xa030(%rsp)
  40228b:	00 02 00 
  40228e:	48 8b 48 18          	mov    0x18(%rax),%rcx
  402292:	48 63 50 14          	movslq 0x14(%rax),%rdx
  402296:	48 8d b4 24 34 a0 00 	lea    0xa034(%rsp),%rsi
  40229d:	00 
  40229e:	48 8b 39             	mov    (%rcx),%rdi
  4022a1:	e8 6a ea ff ff       	callq  400d10 <bcopy@plt>
  4022a6:	0f b7 44 24 04       	movzwl 0x4(%rsp),%eax
  4022ab:	66 c1 c8 08          	ror    $0x8,%ax
  4022af:	66 89 84 24 32 a0 00 	mov    %ax,0xa032(%rsp)
  4022b6:	00 
  4022b7:	ba 10 00 00 00       	mov    $0x10,%edx
  4022bc:	48 8d b4 24 30 a0 00 	lea    0xa030(%rsp),%rsi
  4022c3:	00 
  4022c4:	89 ef                	mov    %ebp,%edi
  4022c6:	e8 b5 ea ff ff       	callq  400d80 <connect@plt>
  4022cb:	85 c0                	test   %eax,%eax
  4022cd:	79 59                	jns    402328 <submitr+0x1d1>
  4022cf:	48 b8 45 72 72 6f 72 	movabs $0x55203a726f727245,%rax
  4022d6:	3a 20 55 
  4022d9:	48 89 03             	mov    %rax,(%rbx)
  4022dc:	48 b8 6e 61 62 6c 65 	movabs $0x6f7420656c62616e,%rax
  4022e3:	20 74 6f 
  4022e6:	48 89 43 08          	mov    %rax,0x8(%rbx)
  4022ea:	48 b8 20 63 6f 6e 6e 	movabs $0x7463656e6e6f6320,%rax
  4022f1:	65 63 74 
  4022f4:	48 89 43 10          	mov    %rax,0x10(%rbx)
  4022f8:	48 b8 20 74 6f 20 74 	movabs $0x20656874206f7420,%rax
  4022ff:	68 65 20 
  402302:	48 89 43 18          	mov    %rax,0x18(%rbx)
  402306:	c7 43 20 73 65 72 76 	movl   $0x76726573,0x20(%rbx)
  40230d:	66 c7 43 24 65 72    	movw   $0x7265,0x24(%rbx)
  402313:	c6 43 26 00          	movb   $0x0,0x26(%rbx)
  402317:	89 ef                	mov    %ebp,%edi
  402319:	e8 22 e9 ff ff       	callq  400c40 <close@plt>
  40231e:	b8 ff ff ff ff       	mov    $0xffffffff,%eax
  402323:	e9 38 05 00 00       	jmpq   402860 <submitr+0x709>
  402328:	48 c7 c2 ff ff ff ff 	mov    $0xffffffffffffffff,%rdx
  40232f:	4c 89 ef             	mov    %r13,%rdi
  402332:	b8 00 00 00 00       	mov    $0x0,%eax
  402337:	48 89 d1             	mov    %rdx,%rcx
  40233a:	f2 ae                	repnz scas %es:(%rdi),%al
  40233c:	48 f7 d1             	not    %rcx
  40233f:	48 89 ce             	mov    %rcx,%rsi
  402342:	4c 89 ff             	mov    %r15,%rdi
  402345:	48 89 d1             	mov    %rdx,%rcx
  402348:	f2 ae                	repnz scas %es:(%rdi),%al
  40234a:	48 f7 d1             	not    %rcx
  40234d:	49 89 c8             	mov    %rcx,%r8
  402350:	4c 89 f7             	mov    %r14,%rdi
  402353:	48 89 d1             	mov    %rdx,%rcx
  402356:	f2 ae                	repnz scas %es:(%rdi),%al
  402358:	49 29 c8             	sub    %rcx,%r8
  40235b:	48 8b 7c 24 08       	mov    0x8(%rsp),%rdi
  402360:	48 89 d1             	mov    %rdx,%rcx
  402363:	f2 ae                	repnz scas %es:(%rdi),%al
  402365:	49 29 c8             	sub    %rcx,%r8
  402368:	48 8d 44 76 fd       	lea    -0x3(%rsi,%rsi,2),%rax
  40236d:	49 8d 44 00 7b       	lea    0x7b(%r8,%rax,1),%rax
  402372:	48 3d 00 20 00 00    	cmp    $0x2000,%rax
  402378:	76 72                	jbe    4023ec <submitr+0x295>
  40237a:	48 b8 45 72 72 6f 72 	movabs $0x52203a726f727245,%rax
  402381:	3a 20 52 
  402384:	48 89 03             	mov    %rax,(%rbx)
  402387:	48 b8 65 73 75 6c 74 	movabs $0x747320746c757365,%rax
  40238e:	20 73 74 
  402391:	48 89 43 08          	mov    %rax,0x8(%rbx)
  402395:	48 b8 72 69 6e 67 20 	movabs $0x6f6f7420676e6972,%rax
  40239c:	74 6f 6f 
  40239f:	48 89 43 10          	mov    %rax,0x10(%rbx)
  4023a3:	48 b8 20 6c 61 72 67 	movabs $0x202e656772616c20,%rax
  4023aa:	65 2e 20 
  4023ad:	48 89 43 18          	mov    %rax,0x18(%rbx)
  4023b1:	48 b8 49 6e 63 72 65 	movabs $0x6573616572636e49,%rax
  4023b8:	61 73 65 
  4023bb:	48 89 43 20          	mov    %rax,0x20(%rbx)
  4023bf:	48 b8 20 53 55 42 4d 	movabs $0x5254494d42555320,%rax
  4023c6:	49 54 52 
  4023c9:	48 89 43 28          	mov    %rax,0x28(%rbx)
  4023cd:	48 b8 5f 4d 41 58 42 	movabs $0x46554258414d5f,%rax
  4023d4:	55 46 00 
  4023d7:	48 89 43 30          	mov    %rax,0x30(%rbx)
  4023db:	89 ef                	mov    %ebp,%edi
  4023dd:	e8 5e e8 ff ff       	callq  400c40 <close@plt>
  4023e2:	b8 ff ff ff ff       	mov    $0xffffffff,%eax
  4023e7:	e9 74 04 00 00       	jmpq   402860 <submitr+0x709>
  4023ec:	48 8d b4 24 20 40 00 	lea    0x4020(%rsp),%rsi
  4023f3:	00 
  4023f4:	b9 00 04 00 00       	mov    $0x400,%ecx
  4023f9:	b8 00 00 00 00       	mov    $0x0,%eax
  4023fe:	48 89 f7             	mov    %rsi,%rdi
  402401:	f3 48 ab             	rep stos %rax,%es:(%rdi)
  402404:	4c 89 ef             	mov    %r13,%rdi
  402407:	e8 0f fb ff ff       	callq  401f1b <urlencode>
  40240c:	85 c0                	test   %eax,%eax
  40240e:	0f 89 8a 00 00 00    	jns    40249e <submitr+0x347>
  402414:	48 b8 45 72 72 6f 72 	movabs $0x52203a726f727245,%rax
  40241b:	3a 20 52 
  40241e:	48 89 03             	mov    %rax,(%rbx)
  402421:	48 b8 65 73 75 6c 74 	movabs $0x747320746c757365,%rax
  402428:	20 73 74 
  40242b:	48 89 43 08          	mov    %rax,0x8(%rbx)
  40242f:	48 b8 72 69 6e 67 20 	movabs $0x6e6f6320676e6972,%rax
  402436:	63 6f 6e 
  402439:	48 89 43 10          	mov    %rax,0x10(%rbx)
  40243d:	48 b8 74 61 69 6e 73 	movabs $0x6e6120736e696174,%rax
  402444:	20 61 6e 
  402447:	48 89 43 18          	mov    %rax,0x18(%rbx)
  40244b:	48 b8 20 69 6c 6c 65 	movabs $0x6c6167656c6c6920,%rax
  402452:	67 61 6c 
  402455:	48 89 43 20          	mov    %rax,0x20(%rbx)
  402459:	48 b8 20 6f 72 20 75 	movabs $0x72706e7520726f20,%rax
  402460:	6e 70 72 
  402463:	48 89 43 28          	mov    %rax,0x28(%rbx)
  402467:	48 b8 69 6e 74 61 62 	movabs $0x20656c6261746e69,%rax
  40246e:	6c 65 20 
  402471:	48 89 43 30          	mov    %rax,0x30(%rbx)
  402475:	48 b8 63 68 61 72 61 	movabs $0x6574636172616863,%rax
  40247c:	63 74 65 
  40247f:	48 89 43 38          	mov    %rax,0x38(%rbx)
  402483:	66 c7 43 40 72 2e    	movw   $0x2e72,0x40(%rbx)
  402489:	c6 43 42 00          	movb   $0x0,0x42(%rbx)
  40248d:	89 ef                	mov    %ebp,%edi
  40248f:	e8 ac e7 ff ff       	callq  400c40 <close@plt>
  402494:	b8 ff ff ff ff       	mov    $0xffffffff,%eax
  402499:	e9 c2 03 00 00       	jmpq   402860 <submitr+0x709>
  40249e:	4d 89 e1             	mov    %r12,%r9
  4024a1:	4c 8d 84 24 20 40 00 	lea    0x4020(%rsp),%r8
  4024a8:	00 
  4024a9:	4c 89 f9             	mov    %r15,%rcx
  4024ac:	4c 89 f2             	mov    %r14,%rdx
  4024af:	be e8 32 40 00       	mov    $0x4032e8,%esi
  4024b4:	48 8d bc 24 20 60 00 	lea    0x6020(%rsp),%rdi
  4024bb:	00 
  4024bc:	b8 00 00 00 00       	mov    $0x0,%eax
  4024c1:	e8 9a e8 ff ff       	callq  400d60 <sprintf@plt>
  4024c6:	48 8d bc 24 20 60 00 	lea    0x6020(%rsp),%rdi
  4024cd:	00 
  4024ce:	b8 00 00 00 00       	mov    $0x0,%eax
  4024d3:	48 c7 c1 ff ff ff ff 	mov    $0xffffffffffffffff,%rcx
  4024da:	f2 ae                	repnz scas %es:(%rdi),%al
  4024dc:	48 f7 d1             	not    %rcx
  4024df:	48 8d 51 ff          	lea    -0x1(%rcx),%rdx
  4024e3:	48 8d b4 24 20 60 00 	lea    0x6020(%rsp),%rsi
  4024ea:	00 
  4024eb:	89 ef                	mov    %ebp,%edi
  4024ed:	e8 ff fa ff ff       	callq  401ff1 <rio_writen>
  4024f2:	48 85 c0             	test   %rax,%rax
  4024f5:	79 6e                	jns    402565 <submitr+0x40e>
  4024f7:	48 b8 45 72 72 6f 72 	movabs $0x43203a726f727245,%rax
  4024fe:	3a 20 43 
  402501:	48 89 03             	mov    %rax,(%rbx)
  402504:	48 b8 6c 69 65 6e 74 	movabs $0x6e7520746e65696c,%rax
  40250b:	20 75 6e 
  40250e:	48 89 43 08          	mov    %rax,0x8(%rbx)
  402512:	48 b8 61 62 6c 65 20 	movabs $0x206f7420656c6261,%rax
  402519:	74 6f 20 
  40251c:	48 89 43 10          	mov    %rax,0x10(%rbx)
  402520:	48 b8 77 72 69 74 65 	movabs $0x6f74206574697277,%rax
  402527:	20 74 6f 
  40252a:	48 89 43 18          	mov    %rax,0x18(%rbx)
  40252e:	48 b8 20 74 68 65 20 	movabs $0x7365722065687420,%rax
  402535:	72 65 73 
  402538:	48 89 43 20          	mov    %rax,0x20(%rbx)
  40253c:	48 b8 75 6c 74 20 73 	movabs $0x7672657320746c75,%rax
  402543:	65 72 76 
  402546:	48 89 43 28          	mov    %rax,0x28(%rbx)
  40254a:	66 c7 43 30 65 72    	movw   $0x7265,0x30(%rbx)
  402550:	c6 43 32 00          	movb   $0x0,0x32(%rbx)
  402554:	89 ef                	mov    %ebp,%edi
  402556:	e8 e5 e6 ff ff       	callq  400c40 <close@plt>
  40255b:	b8 ff ff ff ff       	mov    $0xffffffff,%eax
  402560:	e9 fb 02 00 00       	jmpq   402860 <submitr+0x709>
  402565:	89 ee                	mov    %ebp,%esi
  402567:	48 8d bc 24 20 80 00 	lea    0x8020(%rsp),%rdi
  40256e:	00 
  40256f:	e8 6c f9 ff ff       	callq  401ee0 <rio_readinitb>
  402574:	ba 00 20 00 00       	mov    $0x2000,%edx
  402579:	48 8d b4 24 20 60 00 	lea    0x6020(%rsp),%rsi
  402580:	00 
  402581:	48 8d bc 24 20 80 00 	lea    0x8020(%rsp),%rdi
  402588:	00 
  402589:	e8 46 fb ff ff       	callq  4020d4 <rio_readlineb>
  40258e:	48 85 c0             	test   %rax,%rax
  402591:	7f 7d                	jg     402610 <submitr+0x4b9>
  402593:	48 b8 45 72 72 6f 72 	movabs $0x43203a726f727245,%rax
  40259a:	3a 20 43 
  40259d:	48 89 03             	mov    %rax,(%rbx)
  4025a0:	48 b8 6c 69 65 6e 74 	movabs $0x6e7520746e65696c,%rax
  4025a7:	20 75 6e 
  4025aa:	48 89 43 08          	mov    %rax,0x8(%rbx)
  4025ae:	48 b8 61 62 6c 65 20 	movabs $0x206f7420656c6261,%rax
  4025b5:	74 6f 20 
  4025b8:	48 89 43 10          	mov    %rax,0x10(%rbx)
  4025bc:	48 b8 72 65 61 64 20 	movabs $0x7269662064616572,%rax
  4025c3:	66 69 72 
  4025c6:	48 89 43 18          	mov    %rax,0x18(%rbx)
  4025ca:	48 b8 73 74 20 68 65 	movabs $0x6564616568207473,%rax
  4025d1:	61 64 65 
  4025d4:	48 89 43 20          	mov    %rax,0x20(%rbx)
  4025d8:	48 b8 72 20 66 72 6f 	movabs $0x72206d6f72662072,%rax
  4025df:	6d 20 72 
  4025e2:	48 89 43 28          	mov    %rax,0x28(%rbx)
  4025e6:	48 b8 65 73 75 6c 74 	movabs $0x657320746c757365,%rax
  4025ed:	20 73 65 
  4025f0:	48 89 43 30          	mov    %rax,0x30(%rbx)
  4025f4:	c7 43 38 72 76 65 72 	movl   $0x72657672,0x38(%rbx)
  4025fb:	c6 43 3c 00          	movb   $0x0,0x3c(%rbx)
  4025ff:	89 ef                	mov    %ebp,%edi
  402601:	e8 3a e6 ff ff       	callq  400c40 <close@plt>
  402606:	b8 ff ff ff ff       	mov    $0xffffffff,%eax
  40260b:	e9 50 02 00 00       	jmpq   402860 <submitr+0x709>
  402610:	4c 8d 44 24 10       	lea    0x10(%rsp),%r8
  402615:	48 8d 8c 24 1c 20 00 	lea    0x201c(%rsp),%rcx
  40261c:	00 
  40261d:	48 8d 94 24 20 20 00 	lea    0x2020(%rsp),%rdx
  402624:	00 
  402625:	be 5f 33 40 00       	mov    $0x40335f,%esi
  40262a:	48 8d bc 24 20 60 00 	lea    0x6020(%rsp),%rdi
  402631:	00 
  402632:	b8 00 00 00 00       	mov    $0x0,%eax
  402637:	e8 b4 e6 ff ff       	callq  400cf0 <__isoc99_sscanf@plt>
  40263c:	e9 98 00 00 00       	jmpq   4026d9 <submitr+0x582>
  402641:	ba 00 20 00 00       	mov    $0x2000,%edx
  402646:	48 8d b4 24 20 60 00 	lea    0x6020(%rsp),%rsi
  40264d:	00 
  40264e:	48 8d bc 24 20 80 00 	lea    0x8020(%rsp),%rdi
  402655:	00 
  402656:	e8 79 fa ff ff       	callq  4020d4 <rio_readlineb>
  40265b:	48 85 c0             	test   %rax,%rax
  40265e:	7f 79                	jg     4026d9 <submitr+0x582>
  402660:	48 b8 45 72 72 6f 72 	movabs $0x43203a726f727245,%rax
  402667:	3a 20 43 
  40266a:	48 89 03             	mov    %rax,(%rbx)
  40266d:	48 b8 6c 69 65 6e 74 	movabs $0x6e7520746e65696c,%rax
  402674:	20 75 6e 
  402677:	48 89 43 08          	mov    %rax,0x8(%rbx)
  40267b:	48 b8 61 62 6c 65 20 	movabs $0x206f7420656c6261,%rax
  402682:	74 6f 20 
  402685:	48 89 43 10          	mov    %rax,0x10(%rbx)
  402689:	48 b8 72 65 61 64 20 	movabs $0x6165682064616572,%rax
  402690:	68 65 61 
  402693:	48 89 43 18          	mov    %rax,0x18(%rbx)
  402697:	48 b8 64 65 72 73 20 	movabs $0x6f72662073726564,%rax
  40269e:	66 72 6f 
  4026a1:	48 89 43 20          	mov    %rax,0x20(%rbx)
  4026a5:	48 b8 6d 20 74 68 65 	movabs $0x657220656874206d,%rax
  4026ac:	20 72 65 
  4026af:	48 89 43 28          	mov    %rax,0x28(%rbx)
  4026b3:	48 b8 73 75 6c 74 20 	movabs $0x72657320746c7573,%rax
  4026ba:	73 65 72 
  4026bd:	48 89 43 30          	mov    %rax,0x30(%rbx)
  4026c1:	c7 43 38 76 65 72 00 	movl   $0x726576,0x38(%rbx)
  4026c8:	89 ef                	mov    %ebp,%edi
  4026ca:	e8 71 e5 ff ff       	callq  400c40 <close@plt>
  4026cf:	b8 ff ff ff ff       	mov    $0xffffffff,%eax
  4026d4:	e9 87 01 00 00       	jmpq   402860 <submitr+0x709>
  4026d9:	0f b6 84 24 20 60 00 	movzbl 0x6020(%rsp),%eax
  4026e0:	00 
  4026e1:	83 e8 0d             	sub    $0xd,%eax
  4026e4:	75 15                	jne    4026fb <submitr+0x5a4>
  4026e6:	0f b6 84 24 21 60 00 	movzbl 0x6021(%rsp),%eax
  4026ed:	00 
  4026ee:	83 e8 0a             	sub    $0xa,%eax
  4026f1:	75 08                	jne    4026fb <submitr+0x5a4>
  4026f3:	0f b6 84 24 22 60 00 	movzbl 0x6022(%rsp),%eax
  4026fa:	00 
  4026fb:	85 c0                	test   %eax,%eax
  4026fd:	0f 85 3e ff ff ff    	jne    402641 <submitr+0x4ea>
  402703:	ba 00 20 00 00       	mov    $0x2000,%edx
  402708:	48 8d b4 24 20 60 00 	lea    0x6020(%rsp),%rsi
  40270f:	00 
  402710:	48 8d bc 24 20 80 00 	lea    0x8020(%rsp),%rdi
  402717:	00 
  402718:	e8 b7 f9 ff ff       	callq  4020d4 <rio_readlineb>
  40271d:	48 85 c0             	test   %rax,%rax
  402720:	0f 8f 83 00 00 00    	jg     4027a9 <submitr+0x652>
  402726:	48 b8 45 72 72 6f 72 	movabs $0x43203a726f727245,%rax
  40272d:	3a 20 43 
  402730:	48 89 03             	mov    %rax,(%rbx)
  402733:	48 b8 6c 69 65 6e 74 	movabs $0x6e7520746e65696c,%rax
  40273a:	20 75 6e 
  40273d:	48 89 43 08          	mov    %rax,0x8(%rbx)
  402741:	48 b8 61 62 6c 65 20 	movabs $0x206f7420656c6261,%rax
  402748:	74 6f 20 
  40274b:	48 89 43 10          	mov    %rax,0x10(%rbx)
  40274f:	48 b8 72 65 61 64 20 	movabs $0x6174732064616572,%rax
  402756:	73 74 61 
  402759:	48 89 43 18          	mov    %rax,0x18(%rbx)
  40275d:	48 b8 74 75 73 20 6d 	movabs $0x7373656d20737574,%rax
  402764:	65 73 73 
  402767:	48 89 43 20          	mov    %rax,0x20(%rbx)
  40276b:	48 b8 61 67 65 20 66 	movabs $0x6d6f726620656761,%rax
  402772:	72 6f 6d 
  402775:	48 89 43 28          	mov    %rax,0x28(%rbx)
  402779:	48 b8 20 72 65 73 75 	movabs $0x20746c7573657220,%rax
  402780:	6c 74 20 
  402783:	48 89 43 30          	mov    %rax,0x30(%rbx)
  402787:	c7 43 38 73 65 72 76 	movl   $0x76726573,0x38(%rbx)
  40278e:	66 c7 43 3c 65 72    	movw   $0x7265,0x3c(%rbx)
  402794:	c6 43 3e 00          	movb   $0x0,0x3e(%rbx)
  402798:	89 ef                	mov    %ebp,%edi
  40279a:	e8 a1 e4 ff ff       	callq  400c40 <close@plt>
  40279f:	b8 ff ff ff ff       	mov    $0xffffffff,%eax
  4027a4:	e9 b7 00 00 00       	jmpq   402860 <submitr+0x709>
  4027a9:	8b 94 24 1c 20 00 00 	mov    0x201c(%rsp),%edx
  4027b0:	81 fa c8 00 00 00    	cmp    $0xc8,%edx
  4027b6:	74 28                	je     4027e0 <submitr+0x689>
  4027b8:	48 8d 4c 24 10       	lea    0x10(%rsp),%rcx
  4027bd:	be 28 33 40 00       	mov    $0x403328,%esi
  4027c2:	48 89 df             	mov    %rbx,%rdi
  4027c5:	b8 00 00 00 00       	mov    $0x0,%eax
  4027ca:	e8 91 e5 ff ff       	callq  400d60 <sprintf@plt>
  4027cf:	89 ef                	mov    %ebp,%edi
  4027d1:	e8 6a e4 ff ff       	callq  400c40 <close@plt>
  4027d6:	b8 ff ff ff ff       	mov    $0xffffffff,%eax
  4027db:	e9 80 00 00 00       	jmpq   402860 <submitr+0x709>
  4027e0:	48 8d b4 24 20 60 00 	lea    0x6020(%rsp),%rsi
  4027e7:	00 
  4027e8:	48 89 df             	mov    %rbx,%rdi
  4027eb:	e8 e0 e3 ff ff       	callq  400bd0 <strcpy@plt>
  4027f0:	89 ef                	mov    %ebp,%edi
  4027f2:	e8 49 e4 ff ff       	callq  400c40 <close@plt>
  4027f7:	0f b6 03             	movzbl (%rbx),%eax
  4027fa:	83 e8 4f             	sub    $0x4f,%eax
  4027fd:	75 18                	jne    402817 <submitr+0x6c0>
  4027ff:	0f b6 53 01          	movzbl 0x1(%rbx),%edx
  402803:	83 ea 4b             	sub    $0x4b,%edx
  402806:	75 11                	jne    402819 <submitr+0x6c2>
  402808:	0f b6 53 02          	movzbl 0x2(%rbx),%edx
  40280c:	83 ea 0a             	sub    $0xa,%edx
  40280f:	75 08                	jne    402819 <submitr+0x6c2>
  402811:	0f b6 53 03          	movzbl 0x3(%rbx),%edx
  402815:	eb 02                	jmp    402819 <submitr+0x6c2>
  402817:	89 c2                	mov    %eax,%edx
  402819:	85 d2                	test   %edx,%edx
  40281b:	74 30                	je     40284d <submitr+0x6f6>
  40281d:	bf 70 33 40 00       	mov    $0x403370,%edi
  402822:	b9 05 00 00 00       	mov    $0x5,%ecx
  402827:	48 89 de             	mov    %rbx,%rsi
  40282a:	f3 a6                	repz cmpsb %es:(%rdi),%ds:(%rsi)
  40282c:	0f 97 c1             	seta   %cl
  40282f:	0f 92 c2             	setb   %dl
  402832:	38 d1                	cmp    %dl,%cl
  402834:	74 1e                	je     402854 <submitr+0x6fd>
  402836:	85 c0                	test   %eax,%eax
  402838:	75 0d                	jne    402847 <submitr+0x6f0>
  40283a:	0f b6 43 01          	movzbl 0x1(%rbx),%eax
  40283e:	83 e8 4b             	sub    $0x4b,%eax
  402841:	75 04                	jne    402847 <submitr+0x6f0>
  402843:	0f b6 43 02          	movzbl 0x2(%rbx),%eax
  402847:	85 c0                	test   %eax,%eax
  402849:	75 10                	jne    40285b <submitr+0x704>
  40284b:	eb 13                	jmp    402860 <submitr+0x709>
  40284d:	b8 00 00 00 00       	mov    $0x0,%eax
  402852:	eb 0c                	jmp    402860 <submitr+0x709>
  402854:	b8 00 00 00 00       	mov    $0x0,%eax
  402859:	eb 05                	jmp    402860 <submitr+0x709>
  40285b:	b8 ff ff ff ff       	mov    $0xffffffff,%eax
  402860:	48 81 c4 48 a0 00 00 	add    $0xa048,%rsp
  402867:	5b                   	pop    %rbx
  402868:	5d                   	pop    %rbp
  402869:	41 5c                	pop    %r12
  40286b:	41 5d                	pop    %r13
  40286d:	41 5e                	pop    %r14
  40286f:	41 5f                	pop    %r15
  402871:	c3                   	retq   

0000000000402872 <init_timeout>:
  402872:	53                   	push   %rbx
  402873:	89 fb                	mov    %edi,%ebx
  402875:	85 ff                	test   %edi,%edi
  402877:	74 1f                	je     402898 <init_timeout+0x26>
  402879:	85 ff                	test   %edi,%edi
  40287b:	79 05                	jns    402882 <init_timeout+0x10>
  40287d:	bb 00 00 00 00       	mov    $0x0,%ebx
  402882:	be f2 1e 40 00       	mov    $0x401ef2,%esi
  402887:	bf 0e 00 00 00       	mov    $0xe,%edi
  40288c:	e8 df e3 ff ff       	callq  400c70 <signal@plt>
  402891:	89 df                	mov    %ebx,%edi
  402893:	e8 98 e3 ff ff       	callq  400c30 <alarm@plt>
  402898:	5b                   	pop    %rbx
  402899:	c3                   	retq   

000000000040289a <init_driver>:
  40289a:	55                   	push   %rbp
  40289b:	53                   	push   %rbx
  40289c:	48 83 ec 18          	sub    $0x18,%rsp
  4028a0:	48 89 fd             	mov    %rdi,%rbp
  4028a3:	be 01 00 00 00       	mov    $0x1,%esi
  4028a8:	bf 0d 00 00 00       	mov    $0xd,%edi
  4028ad:	e8 be e3 ff ff       	callq  400c70 <signal@plt>
  4028b2:	be 01 00 00 00       	mov    $0x1,%esi
  4028b7:	bf 1d 00 00 00       	mov    $0x1d,%edi
  4028bc:	e8 af e3 ff ff       	callq  400c70 <signal@plt>
  4028c1:	be 01 00 00 00       	mov    $0x1,%esi
  4028c6:	bf 1d 00 00 00       	mov    $0x1d,%edi
  4028cb:	e8 a0 e3 ff ff       	callq  400c70 <signal@plt>
  4028d0:	ba 00 00 00 00       	mov    $0x0,%edx
  4028d5:	be 01 00 00 00       	mov    $0x1,%esi
  4028da:	bf 02 00 00 00       	mov    $0x2,%edi
  4028df:	e8 ac e4 ff ff       	callq  400d90 <socket@plt>
  4028e4:	89 c3                	mov    %eax,%ebx
  4028e6:	85 c0                	test   %eax,%eax
  4028e8:	79 4f                	jns    402939 <init_driver+0x9f>
  4028ea:	48 b8 45 72 72 6f 72 	movabs $0x43203a726f727245,%rax
  4028f1:	3a 20 43 
  4028f4:	48 89 45 00          	mov    %rax,0x0(%rbp)
  4028f8:	48 b8 6c 69 65 6e 74 	movabs $0x6e7520746e65696c,%rax
  4028ff:	20 75 6e 
  402902:	48 89 45 08          	mov    %rax,0x8(%rbp)
  402906:	48 b8 61 62 6c 65 20 	movabs $0x206f7420656c6261,%rax
  40290d:	74 6f 20 
  402910:	48 89 45 10          	mov    %rax,0x10(%rbp)
  402914:	48 b8 63 72 65 61 74 	movabs $0x7320657461657263,%rax
  40291b:	65 20 73 
  40291e:	48 89 45 18          	mov    %rax,0x18(%rbp)
  402922:	c7 45 20 6f 63 6b 65 	movl   $0x656b636f,0x20(%rbp)
  402929:	66 c7 45 24 74 00    	movw   $0x74,0x24(%rbp)
  40292f:	b8 ff ff ff ff       	mov    $0xffffffff,%eax
  402934:	e9 23 01 00 00       	jmpq   402a5c <init_driver+0x1c2>
  402939:	bf 75 33 40 00       	mov    $0x403375,%edi
  40293e:	e8 3d e3 ff ff       	callq  400c80 <gethostbyname@plt>
  402943:	48 85 c0             	test   %rax,%rax
  402946:	75 68                	jne    4029b0 <init_driver+0x116>
  402948:	48 b8 45 72 72 6f 72 	movabs $0x44203a726f727245,%rax
  40294f:	3a 20 44 
  402952:	48 89 45 00          	mov    %rax,0x0(%rbp)
  402956:	48 b8 4e 53 20 69 73 	movabs $0x6e7520736920534e,%rax
  40295d:	20 75 6e 
  402960:	48 89 45 08          	mov    %rax,0x8(%rbp)
  402964:	48 b8 61 62 6c 65 20 	movabs $0x206f7420656c6261,%rax
  40296b:	74 6f 20 
  40296e:	48 89 45 10          	mov    %rax,0x10(%rbp)
  402972:	48 b8 72 65 73 6f 6c 	movabs $0x2065766c6f736572,%rax
  402979:	76 65 20 
  40297c:	48 89 45 18          	mov    %rax,0x18(%rbp)
  402980:	48 b8 73 65 72 76 65 	movabs $0x6120726576726573,%rax
  402987:	72 20 61 
  40298a:	48 89 45 20          	mov    %rax,0x20(%rbp)
  40298e:	c7 45 28 64 64 72 65 	movl   $0x65726464,0x28(%rbp)
  402995:	66 c7 45 2c 73 73    	movw   $0x7373,0x2c(%rbp)
  40299b:	c6 45 2e 00          	movb   $0x0,0x2e(%rbp)
  40299f:	89 df                	mov    %ebx,%edi
  4029a1:	e8 9a e2 ff ff       	callq  400c40 <close@plt>
  4029a6:	b8 ff ff ff ff       	mov    $0xffffffff,%eax
  4029ab:	e9 ac 00 00 00       	jmpq   402a5c <init_driver+0x1c2>
  4029b0:	48 c7 04 24 00 00 00 	movq   $0x0,(%rsp)
  4029b7:	00 
  4029b8:	48 c7 44 24 08 00 00 	movq   $0x0,0x8(%rsp)
  4029bf:	00 00 
  4029c1:	66 c7 04 24 02 00    	movw   $0x2,(%rsp)
  4029c7:	48 8b 48 18          	mov    0x18(%rax),%rcx
  4029cb:	48 63 50 14          	movslq 0x14(%rax),%rdx
  4029cf:	48 8d 74 24 04       	lea    0x4(%rsp),%rsi
  4029d4:	48 8b 39             	mov    (%rcx),%rdi
  4029d7:	e8 34 e3 ff ff       	callq  400d10 <bcopy@plt>
  4029dc:	66 c7 44 24 02 3c 9a 	movw   $0x9a3c,0x2(%rsp)
  4029e3:	ba 10 00 00 00       	mov    $0x10,%edx
  4029e8:	48 89 e6             	mov    %rsp,%rsi
  4029eb:	89 df                	mov    %ebx,%edi
  4029ed:	e8 8e e3 ff ff       	callq  400d80 <connect@plt>
  4029f2:	85 c0                	test   %eax,%eax
  4029f4:	79 50                	jns    402a46 <init_driver+0x1ac>
  4029f6:	48 b8 45 72 72 6f 72 	movabs $0x55203a726f727245,%rax
  4029fd:	3a 20 55 
  402a00:	48 89 45 00          	mov    %rax,0x0(%rbp)
  402a04:	48 b8 6e 61 62 6c 65 	movabs $0x6f7420656c62616e,%rax
  402a0b:	20 74 6f 
  402a0e:	48 89 45 08          	mov    %rax,0x8(%rbp)
  402a12:	48 b8 20 63 6f 6e 6e 	movabs $0x7463656e6e6f6320,%rax
  402a19:	65 63 74 
  402a1c:	48 89 45 10          	mov    %rax,0x10(%rbp)
  402a20:	48 b8 20 74 6f 20 73 	movabs $0x76726573206f7420,%rax
  402a27:	65 72 76 
  402a2a:	48 89 45 18          	mov    %rax,0x18(%rbp)
  402a2e:	66 c7 45 20 65 72    	movw   $0x7265,0x20(%rbp)
  402a34:	c6 45 22 00          	movb   $0x0,0x22(%rbp)
  402a38:	89 df                	mov    %ebx,%edi
  402a3a:	e8 01 e2 ff ff       	callq  400c40 <close@plt>
  402a3f:	b8 ff ff ff ff       	mov    $0xffffffff,%eax
  402a44:	eb 16                	jmp    402a5c <init_driver+0x1c2>
  402a46:	89 df                	mov    %ebx,%edi
  402a48:	e8 f3 e1 ff ff       	callq  400c40 <close@plt>
  402a4d:	66 c7 45 00 4f 4b    	movw   $0x4b4f,0x0(%rbp)
  402a53:	c6 45 02 00          	movb   $0x0,0x2(%rbp)
  402a57:	b8 00 00 00 00       	mov    $0x0,%eax
  402a5c:	48 83 c4 18          	add    $0x18,%rsp
  402a60:	5b                   	pop    %rbx
  402a61:	5d                   	pop    %rbp
  402a62:	c3                   	retq   

0000000000402a63 <driver_post>:
  402a63:	53                   	push   %rbx
  402a64:	48 83 ec 10          	sub    $0x10,%rsp
  402a68:	4c 89 cb             	mov    %r9,%rbx
  402a6b:	45 85 c0             	test   %r8d,%r8d
  402a6e:	74 22                	je     402a92 <driver_post+0x2f>
  402a70:	48 89 ce             	mov    %rcx,%rsi
  402a73:	bf 81 33 40 00       	mov    $0x403381,%edi
  402a78:	b8 00 00 00 00       	mov    $0x0,%eax
  402a7d:	e8 8e e1 ff ff       	callq  400c10 <printf@plt>
  402a82:	66 c7 03 4f 4b       	movw   $0x4b4f,(%rbx)
  402a87:	c6 43 02 00          	movb   $0x0,0x2(%rbx)
  402a8b:	b8 00 00 00 00       	mov    $0x0,%eax
  402a90:	eb 39                	jmp    402acb <driver_post+0x68>
  402a92:	48 85 ff             	test   %rdi,%rdi
  402a95:	74 26                	je     402abd <driver_post+0x5a>
  402a97:	80 3f 00             	cmpb   $0x0,(%rdi)
  402a9a:	74 21                	je     402abd <driver_post+0x5a>
  402a9c:	4c 89 0c 24          	mov    %r9,(%rsp)
  402aa0:	49 89 c9             	mov    %rcx,%r9
  402aa3:	49 89 d0             	mov    %rdx,%r8
  402aa6:	48 89 f9             	mov    %rdi,%rcx
  402aa9:	48 89 f2             	mov    %rsi,%rdx
  402aac:	be 9a 3c 00 00       	mov    $0x3c9a,%esi
  402ab1:	bf 75 33 40 00       	mov    $0x403375,%edi
  402ab6:	e8 9c f6 ff ff       	callq  402157 <submitr>
  402abb:	eb 0e                	jmp    402acb <driver_post+0x68>
  402abd:	66 c7 03 4f 4b       	movw   $0x4b4f,(%rbx)
  402ac2:	c6 43 02 00          	movb   $0x0,0x2(%rbx)
  402ac6:	b8 00 00 00 00       	mov    $0x0,%eax
  402acb:	48 83 c4 10          	add    $0x10,%rsp
  402acf:	5b                   	pop    %rbx
  402ad0:	c3                   	retq   

0000000000402ad1 <check>:
  402ad1:	89 f8                	mov    %edi,%eax
  402ad3:	c1 e8 1c             	shr    $0x1c,%eax
  402ad6:	85 c0                	test   %eax,%eax
  402ad8:	74 1d                	je     402af7 <check+0x26>
  402ada:	b9 00 00 00 00       	mov    $0x0,%ecx
  402adf:	eb 0b                	jmp    402aec <check+0x1b>
  402ae1:	89 f8                	mov    %edi,%eax
  402ae3:	d3 e8                	shr    %cl,%eax
  402ae5:	3c 0a                	cmp    $0xa,%al
  402ae7:	74 14                	je     402afd <check+0x2c>
  402ae9:	83 c1 08             	add    $0x8,%ecx
  402aec:	83 f9 1f             	cmp    $0x1f,%ecx
  402aef:	7e f0                	jle    402ae1 <check+0x10>
  402af1:	b8 01 00 00 00       	mov    $0x1,%eax
  402af6:	c3                   	retq   
  402af7:	b8 00 00 00 00       	mov    $0x0,%eax
  402afc:	c3                   	retq   
  402afd:	b8 00 00 00 00       	mov    $0x0,%eax
  402b02:	c3                   	retq   

0000000000402b03 <gencookie>:
  402b03:	53                   	push   %rbx
  402b04:	83 c7 01             	add    $0x1,%edi
  402b07:	e8 a4 e0 ff ff       	callq  400bb0 <srandom@plt>
  402b0c:	e8 bf e1 ff ff       	callq  400cd0 <random@plt>
  402b11:	89 c3                	mov    %eax,%ebx
  402b13:	89 c7                	mov    %eax,%edi
  402b15:	e8 b7 ff ff ff       	callq  402ad1 <check>
  402b1a:	85 c0                	test   %eax,%eax
  402b1c:	74 ee                	je     402b0c <gencookie+0x9>
  402b1e:	89 d8                	mov    %ebx,%eax
  402b20:	5b                   	pop    %rbx
  402b21:	c3                   	retq   
  402b22:	66 2e 0f 1f 84 00 00 	nopw   %cs:0x0(%rax,%rax,1)
  402b29:	00 00 00 
  402b2c:	0f 1f 40 00          	nopl   0x0(%rax)

0000000000402b30 <__libc_csu_init>:
  402b30:	41 57                	push   %r15
  402b32:	41 89 ff             	mov    %edi,%r15d
  402b35:	41 56                	push   %r14
  402b37:	49 89 f6             	mov    %rsi,%r14
  402b3a:	41 55                	push   %r13
  402b3c:	49 89 d5             	mov    %rdx,%r13
  402b3f:	41 54                	push   %r12
  402b41:	4c 8d 25 c8 22 20 00 	lea    0x2022c8(%rip),%r12        # 604e10 <__frame_dummy_init_array_entry>
  402b48:	55                   	push   %rbp
  402b49:	48 8d 2d c8 22 20 00 	lea    0x2022c8(%rip),%rbp        # 604e18 <__init_array_end>
  402b50:	53                   	push   %rbx
  402b51:	4c 29 e5             	sub    %r12,%rbp
  402b54:	31 db                	xor    %ebx,%ebx
  402b56:	48 c1 fd 03          	sar    $0x3,%rbp
  402b5a:	48 83 ec 08          	sub    $0x8,%rsp
  402b5e:	e8 0d e0 ff ff       	callq  400b70 <_init>
  402b63:	48 85 ed             	test   %rbp,%rbp
  402b66:	74 1e                	je     402b86 <__libc_csu_init+0x56>
  402b68:	0f 1f 84 00 00 00 00 	nopl   0x0(%rax,%rax,1)
  402b6f:	00 
  402b70:	4c 89 ea             	mov    %r13,%rdx
  402b73:	4c 89 f6             	mov    %r14,%rsi
  402b76:	44 89 ff             	mov    %r15d,%edi
  402b79:	41 ff 14 dc          	callq  *(%r12,%rbx,8)
  402b7d:	48 83 c3 01          	add    $0x1,%rbx
  402b81:	48 39 eb             	cmp    %rbp,%rbx
  402b84:	75 ea                	jne    402b70 <__libc_csu_init+0x40>
  402b86:	48 83 c4 08          	add    $0x8,%rsp
  402b8a:	5b                   	pop    %rbx
  402b8b:	5d                   	pop    %rbp
  402b8c:	41 5c                	pop    %r12
  402b8e:	41 5d                	pop    %r13
  402b90:	41 5e                	pop    %r14
  402b92:	41 5f                	pop    %r15
  402b94:	c3                   	retq   
  402b95:	90                   	nop
  402b96:	66 2e 0f 1f 84 00 00 	nopw   %cs:0x0(%rax,%rax,1)
  402b9d:	00 00 00 

0000000000402ba0 <__libc_csu_fini>:
  402ba0:	f3 c3                	repz retq 

Disassembly of section .fini:

0000000000402ba4 <_fini>:
  402ba4:	48 83 ec 08          	sub    $0x8,%rsp
  402ba8:	48 83 c4 08          	add    $0x8,%rsp
  402bac:	c3                   	retq   
